

Microchip MPLAB XC8 Assembler V3.10 build 20250813170317 
                                                                                               Fri Mar 13 00:34:07 2026

Microchip MPLAB XC8 C Compiler v3.10 (Free license) build 20250813170317 Og1 
     1                           	processor	18F46K22
     2                           	fnconf	rparam,??,?,0
     3                           	pagewidth 120
     4                           	opt	flic
     5                           	psect	idataBANK0,global,class=CODE,space=0,delta=1,noexec
     6                           	psect	smallconst,global,reloc=2,class=SMALLCONST,space=0,delta=1,noexec
     7                           	psect	cinit,global,reloc=2,class=CODE,space=0,delta=1
     8                           	psect	bssCOMRAM,global,class=COMRAM,space=1,delta=1,lowdata,noexec
     9                           	psect	bssBANK0,global,class=BANK0,space=1,delta=1,lowdata,noexec
    10                           	psect	dataBANK0,global,class=BANK0,space=1,delta=1,lowdata,noexec
    11                           	psect	cstackBANK0,global,class=BANK0,space=1,delta=1,lowdata,noexec
    12                           	psect	cstackCOMRAM,global,class=COMRAM,space=1,delta=1,lowdata,noexec
    13                           	psect	text0,global,reloc=2,class=CODE,space=0,delta=1
    14                           	psect	text1,global,reloc=2,class=CODE,space=0,delta=1
    15                           	psect	text2,global,reloc=2,class=CODE,space=0,delta=1
    16                           	psect	text3,global,reloc=2,class=CODE,space=0,delta=1
    17                           	psect	text4,global,reloc=2,class=CODE,space=0,delta=1
    18                           	psect	text5,global,reloc=2,class=CODE,space=0,delta=1
    19                           	psect	text6,global,reloc=2,class=CODE,space=0,delta=1
    20                           	psect	text7,global,reloc=2,class=CODE,space=0,delta=1,group=3
    21                           	psect	text8,global,reloc=2,class=CODE,space=0,delta=1,group=1
    22                           	psect	text9,global,reloc=2,class=CODE,space=0,delta=1,group=1
    23                           	psect	text10,global,reloc=2,class=CODE,space=0,delta=1,group=3
    24                           	psect	text11,global,reloc=2,class=CODE,space=0,delta=1,group=3
    25                           	psect	text12,global,reloc=2,class=CODE,space=0,delta=1,group=3
    26                           	psect	text13,global,reloc=2,class=CODE,space=0,delta=1,group=2
    27                           	psect	text14,global,reloc=2,class=CODE,space=0,delta=1,group=2
    28                           	psect	text15,global,reloc=2,class=CODE,space=0,delta=1,group=2
    29                           	psect	text16,global,reloc=2,class=CODE,space=0,delta=1,group=2
    30                           	psect	text17,global,reloc=2,class=CODE,space=0,delta=1,group=2
    31                           	psect	text18,global,reloc=2,class=CODE,space=0,delta=1,group=2
    32                           	psect	text19,global,reloc=2,class=CODE,space=0,delta=1
    33                           	psect	text20,global,reloc=2,class=CODE,space=0,delta=1
    34                           	psect	intsave_regs,global,class=BIGRAM,space=1,delta=1,noexec
    35                           	psect	rparam,global,class=COMRAM,space=1,delta=1,noexec
    36   000000                     
    37                           ; Generated 12/10/2023 GMT
    38                           ; 
    39                           ; Copyright © 2023, Microchip Technology Inc. and its subsidiaries ("Microchip")
    40                           ; All rights reserved.
    41                           ; 
    42                           ; This software is developed by Microchip Technology Inc. and its subsidiaries ("Microch
      +                          ip").
    43                           ; 
    44                           ; Redistribution and use in source and binary forms, with or without modification, are
    45                           ; permitted provided that the following conditions are met:
    46                           ; 
    47                           ;     1. Redistributions of source code must retain the above copyright notice, this lis
      +                          t of
    48                           ;        conditions and the following disclaimer.
    49                           ; 
    50                           ;     2. Redistributions in binary form must reproduce the above copyright notice, this 
      +                          list
    51                           ;        of conditions and the following disclaimer in the documentation and/or other
    52                           ;        materials provided with the distribution. Publication is not required when
    53                           ;        this file is used in an embedded application.
    54                           ; 
    55                           ;     3. Microchip's name may not be used to endorse or promote products derived from th
      +                          is
    56                           ;        software without specific prior written permission.
    57                           ; 
    58                           ; THIS SOFTWARE IS PROVIDED BY MICROCHIP "AS IS" AND ANY EXPRESS OR IMPLIED WARRANTIES,
    59                           ; INCLUDING, BUT NOT LIMITED TO, THE IMPLIED WARRANTIES OF MERCHANTABILITY AND FITNESS F
      +                          OR
    60                           ; PURPOSE ARE DISCLAIMED.  IN NO EVENT SHALL MICROCHIP BE LIABLE FOR ANY DIRECT, INDIREC
      +                          T,
    61                           ; INCIDENTAL, SPECIAL, EXEMPLARY, OR CONSEQUENTIAL DAMAGES (INCLUDING BUT NOT LIMITED TO
    62                           ; PROCUREMENT OF SUBSTITUTE GOODS OR SERVICES; LOSS OF USE, DATA OR PROFITS; OR BUSINESS
    63                           ; INTERRUPTION) HOWSOEVER CAUSED AND ON ANY THEORY OF LIABILITY, WHETHER IN CONTRACT, ST
      +                          RICT
    64                           ; LIABILITY, OR TORT (INCLUDING NEGLIGENCE OR OTHERWISE) ARISING IN ANY WAY OUT OF THE U
      +                          SE OF
    65                           ; THIS SOFTWARE, EVEN IF ADVISED OF THE POSSIBILITY OF SUCH DAMAGE.
    66                           ; 
    67                           ; 
    68                           ; Code-generator required, PIC18F46K22 Definitions
    69                           ; 
    70                           ; SFR Addresses
    71   000FE0                     bsr             equ	4064
    72   000FE9                     fsr0            equ	4073
    73   000FEA                     fsr0h           equ	4074
    74   000FE9                     fsr0l           equ	4073
    75   000FE1                     fsr1            equ	4065
    76   000FE2                     fsr1h           equ	4066
    77   000FE1                     fsr1l           equ	4065
    78   000FD9                     fsr2            equ	4057
    79   000FDA                     fsr2h           equ	4058
    80   000FD9                     fsr2l           equ	4057
    81   000FEF                     indf0           equ	4079
    82   000FE7                     indf1           equ	4071
    83   000FDF                     indf2           equ	4063
    84   000FF2                     intcon          equ	4082
    85   000000                     nvmcon          equ	0
    86   000FF9                     pcl             equ	4089
    87   000FFA                     pclath          equ	4090
    88   000FFB                     pclatu          equ	4091
    89   000FEB                     plusw0          equ	4075
    90   000FE3                     plusw1          equ	4067
    91   000FDB                     plusw2          equ	4059
    92   000FED                     postdec0        equ	4077
    93   000FE5                     postdec1        equ	4069
    94   000FDD                     postdec2        equ	4061
    95   000FEE                     postinc0        equ	4078
    96   000FE6                     postinc1        equ	4070
    97   000FDE                     postinc2        equ	4062
    98   000FEC                     preinc0         equ	4076
    99   000FE4                     preinc1         equ	4068
   100   000FDC                     preinc2         equ	4060
   101   000FF3                     prod            equ	4083
   102   000FF4                     prodh           equ	4084
   103   000FF3                     prodl           equ	4083
   104   000FD8                     status          equ	4056
   105   000FF5                     tablat          equ	4085
   106   000FF6                     tblptr          equ	4086
   107   000FF7                     tblptrh         equ	4087
   108   000FF6                     tblptrl         equ	4086
   109   000FF8                     tblptru         equ	4088
   110   000FFD                     tosl            equ	4093
   111   000FE8                     wreg            equ	4072
   112   000F38                     ANSELA          equ	3896	;# 
   113   000F39                     ANSELB          equ	3897	;# 
   114   000F3A                     ANSELC          equ	3898	;# 
   115   000F3B                     ANSELD          equ	3899	;# 
   116   000F3C                     ANSELE          equ	3900	;# 
   117   000F3D                     PMD2            equ	3901	;# 
   118   000F3E                     PMD1            equ	3902	;# 
   119   000F3F                     PMD0            equ	3903	;# 
   120   000F40                     VREFCON2        equ	3904	;# 
   121   000F40                     DACCON1         equ	3904	;# 
   122   000F41                     VREFCON1        equ	3905	;# 
   123   000F41                     DACCON0         equ	3905	;# 
   124   000F42                     VREFCON0        equ	3906	;# 
   125   000F42                     FVRCON          equ	3906	;# 
   126   000F43                     CTMUICON        equ	3907	;# 
   127   000F43                     CTMUICONH       equ	3907	;# 
   128   000F44                     CTMUCONL        equ	3908	;# 
   129   000F44                     CTMUCON1        equ	3908	;# 
   130   000F45                     CTMUCONH        equ	3909	;# 
   131   000F45                     CTMUCON0        equ	3909	;# 
   132   000F46                     SRCON1          equ	3910	;# 
   133   000F47                     SRCON0          equ	3911	;# 
   134   000F48                     CCPTMRS1        equ	3912	;# 
   135   000F49                     CCPTMRS0        equ	3913	;# 
   136   000F4A                     T6CON           equ	3914	;# 
   137   000F4B                     PR6             equ	3915	;# 
   138   000F4C                     TMR6            equ	3916	;# 
   139   000F4D                     T5GCON          equ	3917	;# 
   140   000F4E                     T5CON           equ	3918	;# 
   141   000F4F                     TMR5            equ	3919	;# 
   142   000F4F                     TMR5L           equ	3919	;# 
   143   000F50                     TMR5H           equ	3920	;# 
   144   000F51                     T4CON           equ	3921	;# 
   145   000F52                     PR4             equ	3922	;# 
   146   000F53                     TMR4            equ	3923	;# 
   147   000F54                     CCP5CON         equ	3924	;# 
   148   000F55                     CCPR5           equ	3925	;# 
   149   000F55                     CCPR5L          equ	3925	;# 
   150   000F56                     CCPR5H          equ	3926	;# 
   151   000F57                     CCP4CON         equ	3927	;# 
   152   000F58                     CCPR4           equ	3928	;# 
   153   000F58                     CCPR4L          equ	3928	;# 
   154   000F59                     CCPR4H          equ	3929	;# 
   155   000F5A                     PSTR3CON        equ	3930	;# 
   156   000F5B                     ECCP3AS         equ	3931	;# 
   157   000F5B                     CCP3AS          equ	3931	;# 
   158   000F5C                     PWM3CON         equ	3932	;# 
   159   000F5D                     CCP3CON         equ	3933	;# 
   160   000F5E                     CCPR3           equ	3934	;# 
   161   000F5E                     CCPR3L          equ	3934	;# 
   162   000F5F                     CCPR3H          equ	3935	;# 
   163   000F60                     SLRCON          equ	3936	;# 
   164   000F61                     WPUB            equ	3937	;# 
   165   000F62                     IOCB            equ	3938	;# 
   166   000F63                     PSTR2CON        equ	3939	;# 
   167   000F64                     ECCP2AS         equ	3940	;# 
   168   000F64                     CCP2AS          equ	3940	;# 
   169   000F65                     PWM2CON         equ	3941	;# 
   170   000F66                     CCP2CON         equ	3942	;# 
   171   000F67                     CCPR2           equ	3943	;# 
   172   000F67                     CCPR2L          equ	3943	;# 
   173   000F68                     CCPR2H          equ	3944	;# 
   174   000F69                     SSP2CON3        equ	3945	;# 
   175   000F6A                     SSP2MSK         equ	3946	;# 
   176   000F6B                     SSP2CON2        equ	3947	;# 
   177   000F6C                     SSP2CON1        equ	3948	;# 
   178   000F6D                     SSP2STAT        equ	3949	;# 
   179   000F6E                     SSP2ADD         equ	3950	;# 
   180   000F6F                     SSP2BUF         equ	3951	;# 
   181   000F70                     BAUDCON2        equ	3952	;# 
   182   000F70                     BAUD2CON        equ	3952	;# 
   183   000F71                     RCSTA2          equ	3953	;# 
   184   000F71                     RC2STA          equ	3953	;# 
   185   000F72                     TXSTA2          equ	3954	;# 
   186   000F72                     TX2STA          equ	3954	;# 
   187   000F73                     TXREG2          equ	3955	;# 
   188   000F73                     TX2REG          equ	3955	;# 
   189   000F74                     RCREG2          equ	3956	;# 
   190   000F74                     RC2REG          equ	3956	;# 
   191   000F75                     SPBRG2          equ	3957	;# 
   192   000F75                     SP2BRG          equ	3957	;# 
   193   000F76                     SPBRGH2         equ	3958	;# 
   194   000F76                     SP2BRGH         equ	3958	;# 
   195   000F77                     CM2CON1         equ	3959	;# 
   196   000F77                     CM12CON         equ	3959	;# 
   197   000F78                     CM2CON0         equ	3960	;# 
   198   000F78                     CM2CON          equ	3960	;# 
   199   000F79                     CM1CON0         equ	3961	;# 
   200   000F79                     CM1CON          equ	3961	;# 
   201   000F7A                     PIE4            equ	3962	;# 
   202   000F7B                     PIR4            equ	3963	;# 
   203   000F7C                     IPR4            equ	3964	;# 
   204   000F7D                     PIE5            equ	3965	;# 
   205   000F7E                     PIR5            equ	3966	;# 
   206   000F7F                     IPR5            equ	3967	;# 
   207   000F80                     PORTA           equ	3968	;# 
   208   000F81                     PORTB           equ	3969	;# 
   209   000F82                     PORTC           equ	3970	;# 
   210   000F83                     PORTD           equ	3971	;# 
   211   000F84                     PORTE           equ	3972	;# 
   212   000F89                     LATA            equ	3977	;# 
   213   000F8A                     LATB            equ	3978	;# 
   214   000F8B                     LATC            equ	3979	;# 
   215   000F8C                     LATD            equ	3980	;# 
   216   000F8D                     LATE            equ	3981	;# 
   217   000F92                     TRISA           equ	3986	;# 
   218   000F92                     DDRA            equ	3986	;# 
   219   000F93                     TRISB           equ	3987	;# 
   220   000F93                     DDRB            equ	3987	;# 
   221   000F94                     TRISC           equ	3988	;# 
   222   000F94                     DDRC            equ	3988	;# 
   223   000F95                     TRISD           equ	3989	;# 
   224   000F95                     DDRD            equ	3989	;# 
   225   000F96                     TRISE           equ	3990	;# 
   226   000F96                     DDRE            equ	3990	;# 
   227   000F9B                     OSCTUNE         equ	3995	;# 
   228   000F9C                     HLVDCON         equ	3996	;# 
   229   000F9C                     LVDCON          equ	3996	;# 
   230   000F9D                     PIE1            equ	3997	;# 
   231   000F9E                     PIR1            equ	3998	;# 
   232   000F9F                     IPR1            equ	3999	;# 
   233   000FA0                     PIE2            equ	4000	;# 
   234   000FA1                     PIR2            equ	4001	;# 
   235   000FA2                     IPR2            equ	4002	;# 
   236   000FA3                     PIE3            equ	4003	;# 
   237   000FA4                     PIR3            equ	4004	;# 
   238   000FA5                     IPR3            equ	4005	;# 
   239   000FA6                     EECON1          equ	4006	;# 
   240   000FA7                     EECON2          equ	4007	;# 
   241   000FA8                     EEDATA          equ	4008	;# 
   242   000FA9                     EEADR           equ	4009	;# 
   243   000FAA                     EEADRH          equ	4010	;# 
   244   000FAB                     RCSTA1          equ	4011	;# 
   245   000FAB                     RCSTA           equ	4011	;# 
   246   000FAB                     RC1STA          equ	4011	;# 
   247   000FAC                     TXSTA1          equ	4012	;# 
   248   000FAC                     TXSTA           equ	4012	;# 
   249   000FAC                     TX1STA          equ	4012	;# 
   250   000FAD                     TXREG1          equ	4013	;# 
   251   000FAD                     TXREG           equ	4013	;# 
   252   000FAD                     TX1REG          equ	4013	;# 
   253   000FAE                     RCREG1          equ	4014	;# 
   254   000FAE                     RCREG           equ	4014	;# 
   255   000FAE                     RC1REG          equ	4014	;# 
   256   000FAF                     SPBRG1          equ	4015	;# 
   257   000FAF                     SPBRG           equ	4015	;# 
   258   000FAF                     SP1BRG          equ	4015	;# 
   259   000FB0                     SPBRGH1         equ	4016	;# 
   260   000FB0                     SPBRGH          equ	4016	;# 
   261   000FB0                     SP1BRGH         equ	4016	;# 
   262   000FB1                     T3CON           equ	4017	;# 
   263   000FB2                     TMR3            equ	4018	;# 
   264   000FB2                     TMR3L           equ	4018	;# 
   265   000FB3                     TMR3H           equ	4019	;# 
   266   000FB4                     T3GCON          equ	4020	;# 
   267   000FB6                     ECCP1AS         equ	4022	;# 
   268   000FB6                     ECCPAS          equ	4022	;# 
   269   000FB7                     PWM1CON         equ	4023	;# 
   270   000FB7                     PWMCON          equ	4023	;# 
   271   000FB8                     BAUDCON1        equ	4024	;# 
   272   000FB8                     BAUDCON         equ	4024	;# 
   273   000FB8                     BAUDCTL         equ	4024	;# 
   274   000FB8                     BAUD1CON        equ	4024	;# 
   275   000FB9                     PSTR1CON        equ	4025	;# 
   276   000FB9                     PSTRCON         equ	4025	;# 
   277   000FBA                     T2CON           equ	4026	;# 
   278   000FBB                     PR2             equ	4027	;# 
   279   000FBC                     TMR2            equ	4028	;# 
   280   000FBD                     CCP1CON         equ	4029	;# 
   281   000FBE                     CCPR1           equ	4030	;# 
   282   000FBE                     CCPR1L          equ	4030	;# 
   283   000FBF                     CCPR1H          equ	4031	;# 
   284   000FC0                     ADCON2          equ	4032	;# 
   285   000FC1                     ADCON1          equ	4033	;# 
   286   000FC2                     ADCON0          equ	4034	;# 
   287   000FC3                     ADRES           equ	4035	;# 
   288   000FC3                     ADRESL          equ	4035	;# 
   289   000FC4                     ADRESH          equ	4036	;# 
   290   000FC5                     SSP1CON2        equ	4037	;# 
   291   000FC5                     SSPCON2         equ	4037	;# 
   292   000FC6                     SSP1CON1        equ	4038	;# 
   293   000FC6                     SSPCON1         equ	4038	;# 
   294   000FC7                     SSP1STAT        equ	4039	;# 
   295   000FC7                     SSPSTAT         equ	4039	;# 
   296   000FC8                     SSP1ADD         equ	4040	;# 
   297   000FC8                     SSPADD          equ	4040	;# 
   298   000FC9                     SSP1BUF         equ	4041	;# 
   299   000FC9                     SSPBUF          equ	4041	;# 
   300   000FCA                     SSP1MSK         equ	4042	;# 
   301   000FCA                     SSPMSK          equ	4042	;# 
   302   000FCB                     SSP1CON3        equ	4043	;# 
   303   000FCB                     SSPCON3         equ	4043	;# 
   304   000FCC                     T1GCON          equ	4044	;# 
   305   000FCD                     T1CON           equ	4045	;# 
   306   000FCE                     TMR1            equ	4046	;# 
   307   000FCE                     TMR1L           equ	4046	;# 
   308   000FCF                     TMR1H           equ	4047	;# 
   309   000FD0                     RCON            equ	4048	;# 
   310   000FD1                     WDTCON          equ	4049	;# 
   311   000FD2                     OSCCON2         equ	4050	;# 
   312   000FD3                     OSCCON          equ	4051	;# 
   313   000FD5                     T0CON           equ	4053	;# 
   314   000FD6                     TMR0            equ	4054	;# 
   315   000FD6                     TMR0L           equ	4054	;# 
   316   000FD7                     TMR0H           equ	4055	;# 
   317   000FD8                     STATUS          equ	4056	;# 
   318   000FD9                     FSR2            equ	4057	;# 
   319   000FD9                     FSR2L           equ	4057	;# 
   320   000FDA                     FSR2H           equ	4058	;# 
   321   000FDB                     PLUSW2          equ	4059	;# 
   322   000FDC                     PREINC2         equ	4060	;# 
   323   000FDD                     POSTDEC2        equ	4061	;# 
   324   000FDE                     POSTINC2        equ	4062	;# 
   325   000FDF                     INDF2           equ	4063	;# 
   326   000FE0                     BSR             equ	4064	;# 
   327   000FE1                     FSR1            equ	4065	;# 
   328   000FE1                     FSR1L           equ	4065	;# 
   329   000FE2                     FSR1H           equ	4066	;# 
   330   000FE3                     PLUSW1          equ	4067	;# 
   331   000FE4                     PREINC1         equ	4068	;# 
   332   000FE5                     POSTDEC1        equ	4069	;# 
   333   000FE6                     POSTINC1        equ	4070	;# 
   334   000FE7                     INDF1           equ	4071	;# 
   335   000FE8                     WREG            equ	4072	;# 
   336   000FE9                     FSR0            equ	4073	;# 
   337   000FE9                     FSR0L           equ	4073	;# 
   338   000FEA                     FSR0H           equ	4074	;# 
   339   000FEB                     PLUSW0          equ	4075	;# 
   340   000FEC                     PREINC0         equ	4076	;# 
   341   000FED                     POSTDEC0        equ	4077	;# 
   342   000FEE                     POSTINC0        equ	4078	;# 
   343   000FEF                     INDF0           equ	4079	;# 
   344   000FF0                     INTCON3         equ	4080	;# 
   345   000FF1                     INTCON2         equ	4081	;# 
   346   000FF2                     INTCON          equ	4082	;# 
   347   000FF3                     PROD            equ	4083	;# 
   348   000FF3                     PRODL           equ	4083	;# 
   349   000FF4                     PRODH           equ	4084	;# 
   350   000FF5                     TABLAT          equ	4085	;# 
   351   000FF6                     TBLPTR          equ	4086	;# 
   352   000FF6                     TBLPTRL         equ	4086	;# 
   353   000FF7                     TBLPTRH         equ	4087	;# 
   354   000FF8                     TBLPTRU         equ	4088	;# 
   355   000FF9                     PCLAT           equ	4089	;# 
   356   000FF9                     PC              equ	4089	;# 
   357   000FF9                     PCL             equ	4089	;# 
   358   000FFA                     PCLATH          equ	4090	;# 
   359   000FFB                     PCLATU          equ	4091	;# 
   360   000FFC                     STKPTR          equ	4092	;# 
   361   000FFD                     TOS             equ	4093	;# 
   362   000FFD                     TOSL            equ	4093	;# 
   363   000FFE                     TOSH            equ	4094	;# 
   364   000FFF                     TOSU            equ	4095	;# 
   365                           
   366                           	psect	idataBANK0
   367   0024BC                     __pidataBANK0:
   368                           	callstack 0
   369                           
   370                           ;initializer for uartsuccess@F6341
   371   0024BC  55                 	db	85
   372   0024BD  41                 	db	65
   373   0024BE  52                 	db	82
   374   0024BF  54                 	db	84
   375   0024C0  20                 	db	32
   376   0024C1  73                 	db	115
   377   0024C2  65                 	db	101
   378   0024C3  74                 	db	116
   379   0024C4  75                 	db	117
   380   0024C5  70                 	db	112
   381   0024C6  20                 	db	32
   382   0024C7  73                 	db	115
   383   0024C8  75                 	db	117
   384   0024C9  63                 	db	99
   385   0024CA  63                 	db	99
   386   0024CB  65                 	db	101
   387   0024CC  73                 	db	115
   388   0024CD  73                 	db	115
   389   0024CE  66                 	db	102
   390   0024CF  75                 	db	117
   391   0024D0  6C                 	db	108
   392   0024D1  0D                 	db	13
   393   0024D2  0A                 	db	10
   394   0024D3  00                 	db	0
   395                           
   396                           ;initializer for adcsuccess@F6345
   397   0024D4  41                 	db	65
   398   0024D5  44                 	db	68
   399   0024D6  43                 	db	67
   400   0024D7  20                 	db	32
   401   0024D8  73                 	db	115
   402   0024D9  65                 	db	101
   403   0024DA  74                 	db	116
   404   0024DB  75                 	db	117
   405   0024DC  70                 	db	112
   406   0024DD  20                 	db	32
   407   0024DE  73                 	db	115
   408   0024DF  75                 	db	117
   409   0024E0  63                 	db	99
   410   0024E1  63                 	db	99
   411   0024E2  65                 	db	101
   412   0024E3  73                 	db	115
   413   0024E4  73                 	db	115
   414   0024E5  66                 	db	102
   415   0024E6  75                 	db	117
   416   0024E7  6C                 	db	108
   417   0024E8  0D                 	db	13
   418   0024E9  0A                 	db	10
   419   0024EA  00                 	db	0
   420                           
   421                           	psect	smallconst
   422   001000                     __psmallconst:
   423                           	callstack 0
   424   001000  00                 	db	0
   425   001001                     uartStart@F6351:
   426                           	callstack 0
   427   001001  23                 	db	35
   428   001002  53                 	db	83
   429   001003  54                 	db	84
   430   001004  41                 	db	65
   431   001005  52                 	db	82
   432   001006  54                 	db	84
   433   001007  0D                 	db	13
   434   001008  0A                 	db	10
   435   001009  00                 	db	0
   436   00100A                     __end_ofuartStart@F6351:
   437                           	callstack 0
   438   00100A                     uartEnd@F6355:
   439                           	callstack 0
   440   00100A  23                 	db	35
   441   00100B  45                 	db	69
   442   00100C  4E                 	db	78
   443   00100D  44                 	db	68
   444   00100E  0D                 	db	13
   445   00100F  0A                 	db	10
   446   001010  00                 	db	0
   447   001011                     __end_ofuartEnd@F6355:
   448                           	callstack 0
   449   001011  CCCD               	dw	52429
   450   001013  3DCC               	dw	15820
   451   001015                     __end_of_R:
   452                           	callstack 0
   453   001015                     uarttx@F6361:
   454                           	callstack 0
   455   001015  0D                 	db	13
   456   001016  0A                 	db	10
   457   001017  00                 	db	0
   458   001018                     __end_ofuarttx@F6361:
   459                           	callstack 0
   460   000F42                     _VREFCON0bits   set	3906
   461   000F39                     _ANSELBbits     set	3897
   462   000F3C                     _ANSELEbits     set	3900
   463   000F38                     _ANSELAbits     set	3896
   464   000F3A                     _ANSELCbits     set	3898
   465   000FC3                     _ADRESL         set	4035
   466   000FC4                     _ADRESH         set	4036
   467   000FD3                     _OSCCONbits     set	4051
   468   000FC0                     _ADCON2bits     set	4032
   469   000FC1                     _ADCON1bits     set	4033
   470   000FC2                     _ADCON0bits     set	4034
   471   000F93                     _TRISBbits      set	3987
   472   000F96                     _TRISEbits      set	3990
   473   000F92                     _TRISAbits      set	3986
   474   000FAC                     _TXSTA1bits     set	4012
   475   000FAB                     _RCSTA1bits     set	4011
   476   000FAF                     _SPBRG1         set	4015
   477   000FB8                     _BAUDCON1bits   set	4024
   478   000F94                     _TRISCbits      set	3988
   479   000FAD                     _TXREG1         set	4013
   480   000F9E                     _PIR1bits       set	3998
   481   001018                     STR_1:
   482                           
   483                           ; BSR set to: 15
   484   001018  25                 	db	37
   485   001019  64                 	db	100	;'d'
   486   00101A  00                 	db	0
   487   00101B  00                 	db	0	; dummy byte at the end
   488   001000                     __smallconst    set	__psmallconst
   489   001000                     __mediumconst   set	__psmallconst
   490   000001                     __activetblptr  equ	1
   491                           
   492                           ; #config settings
   493                           
   494                           	psect	cinit
   495   0023DC                     __pcinit:
   496                           	callstack 0
   497   0023DC                     start_initialization:
   498                           	callstack 0
   499   0023DC                     __initialization:
   500                           	callstack 0
   501                           
   502                           ; Initialize objects allocated to BANK0 (47 bytes)
   503                           ; load TBLPTR registers with __pidataBANK0
   504   0023DC  0EBC               	movlw	low __pidataBANK0
   505   0023DE  6EF6               	movwf	tblptrl,c
   506   0023E0  0E24               	movlw	high __pidataBANK0
   507   0023E2  6EF7               	movwf	tblptrh,c
   508   0023E4  0E00               	movlw	low (__pidataBANK0 shr (0+16))
   509   0023E6  6EF8               	movwf	tblptru,c
   510   0023E8  EE00  F09A         	lfsr	0,__pdataBANK0
   511   0023EC  EE10 F02F          	lfsr	1,47
   512   0023F0                     copy_data0:
   513   0023F0  0009               	tblrd		*+
   514   0023F2  CFF5 FFEE          	movff	tablat,postinc0
   515   0023F6  50E5               	movf	postdec1,w,c
   516   0023F8  50E1               	movf	fsr1l,w,c
   517   0023FA  E1FA               	bnz	copy_data0
   518                           
   519                           ; Clear objects allocated to BANK0 (58 bytes)
   520   0023FC  EE00  F060         	lfsr	0,__pbssBANK0
   521   002400  0E3A               	movlw	58
   522   002402                     clear_0:
   523   002402  6AEE               	clrf	postinc0,c
   524   002404  06E8               	decf	wreg,f,c
   525   002406  E1FD               	bnz	clear_0
   526                           
   527                           ; Clear objects allocated to COMRAM (5 bytes)
   528   002408  6A53               	clrf	(__pbssCOMRAM+4)& (0+255),c
   529   00240A  6A52               	clrf	(__pbssCOMRAM+3)& (0+255),c
   530   00240C  6A51               	clrf	(__pbssCOMRAM+2)& (0+255),c
   531   00240E  6A50               	clrf	(__pbssCOMRAM+1)& (0+255),c
   532   002410  6A4F               	clrf	__pbssCOMRAM& (0+255),c
   533   002412                     end_of_initialization:
   534                           	callstack 0
   535   002412                     __end_of__initialization:
   536                           	callstack 0
   537   002412  0E00               	movlw	low (__Lsmallconst shr (0+16))
   538   002414  6EF8               	movwf	tblptru,c
   539   002416  0E10               	movlw	high __Lsmallconst
   540   002418  6EF7               	movwf	tblptrh,c
   541   00241A  0100               	movlb	0
   542   00241C  EFE8  F00B         	goto	_main	;jump to C main() function
   543                           
   544                           	psect	bssCOMRAM
   545   00004F                     __pbssCOMRAM:
   546                           	callstack 0
   547   00004F                     _width:
   548                           	callstack 0
   549   00004F                     	ds	2
   550   000051                     _prec:
   551                           	callstack 0
   552   000051                     	ds	2
   553   000053                     _flags:
   554                           	callstack 0
   555   000053                     	ds	1
   556                           
   557                           	psect	bssBANK0
   558   000060                     __pbssBANK0:
   559                           	callstack 0
   560   000060                     _dbuf:
   561                           	callstack 0
   562   000060                     	ds	32
   563   000080                     	ds	26
   564                           
   565                           	psect	dataBANK0
   566   00009A                     __pdataBANK0:
   567                           	callstack 0
   568   00009A                     uartsuccess@F6341:
   569                           	callstack 0
   570   00009A                     	ds	24
   571   0000B2                     adcsuccess@F6345:
   572                           	callstack 0
   573   0000B2                     	ds	23
   574                           
   575                           	psect	cstackBANK0
   576   0000C9                     __pcstackBANK0:
   577                           	callstack 0
   578   0000C9                     main@results:
   579                           	callstack 0
   580                           
   581                           ; 26 bytes @ 0x0
   582   0000C9                     	ds	26
   583   0000E3                     main@label:
   584                           	callstack 0
   585                           
   586                           ; 7 bytes @ 0x1A
   587   0000E3                     	ds	7
   588   0000EA                     main@j:
   589                           	callstack 0
   590                           
   591                           ; 2 bytes @ 0x21
   592   0000EA                     	ds	2
   593   0000EC                     main@ChSEL:
   594                           	callstack 0
   595                           
   596                           ; 1 bytes @ 0x23
   597   0000EC                     	ds	1
   598   0000ED                     main@i:
   599                           	callstack 0
   600                           
   601                           ; 2 bytes @ 0x24
   602   0000ED                     	ds	2
   603                           
   604                           	psect	cstackCOMRAM
   605   000001                     __pcstackCOMRAM:
   606                           	callstack 0
   607   000001                     ?___awdiv:
   608                           	callstack 0
   609   000001                     ?___awmod:
   610                           	callstack 0
   611   000001                     ?___flmul:
   612                           	callstack 0
   613   000001                     ?___xxtofl:
   614                           	callstack 0
   615   000001                     uarttx@message:
   616                           	callstack 0
   617   000001                     ___awdiv@dividend:
   618                           	callstack 0
   619   000001                     ___awmod@dividend:
   620                           	callstack 0
   621   000001                     fputc@c:
   622                           	callstack 0
   623   000001                     ___flmul@b:
   624                           	callstack 0
   625   000001                     ___xxtofl@val:
   626                           	callstack 0
   627   000001                     uartEnd@endMarker:
   628                           	callstack 0
   629   000001                     uartStart@startMarker:
   630                           	callstack 0
   631   000001                     ??_uartsuccess:
   632   000001                     ??_adcsuccess:
   633   000001                     ??_adcsetup:
   634   000001                     
   635                           ; 1 bytes @ 0x0
   636   000001                     	ds	1
   637   000002                     uarttx@Anum:
   638                           	callstack 0
   639   000002                     adcsuccess@message:
   640                           	callstack 0
   641   000002                     uartsuccess@message:
   642                           	callstack 0
   643                           
   644                           ; 24 bytes @ 0x1
   645   000002                     	ds	1
   646   000003                     fputc@fp:
   647                           	callstack 0
   648   000003                     ___awdiv@divisor:
   649                           	callstack 0
   650   000003                     ___awmod@divisor:
   651                           	callstack 0
   652   000003                     uarttx@newline:
   653                           	callstack 0
   654   000003                     
   655                           ; 1 bytes @ 0x2
   656   000003                     	ds	1
   657   000004                     ??_fputc:
   658                           
   659                           ; 1 bytes @ 0x3
   660   000004                     	ds	1
   661   000005                     ___awdiv@counter:
   662                           	callstack 0
   663   000005                     ___awmod@counter:
   664                           	callstack 0
   665   000005                     ___flmul@a:
   666                           	callstack 0
   667   000005                     ??___xxtofl:
   668                           
   669                           ; 1 bytes @ 0x4
   670   000005                     	ds	1
   671   000006                     ___awdiv@sign:
   672                           	callstack 0
   673   000006                     ___awmod@sign:
   674                           	callstack 0
   675   000006                     uarttx@i:
   676                           	callstack 0
   677                           
   678                           ; 2 bytes @ 0x5
   679   000006                     	ds	1
   680   000007                     ?_abs:
   681                           	callstack 0
   682   000007                     ___awdiv@quotient:
   683                           	callstack 0
   684   000007                     abs@a:
   685                           	callstack 0
   686                           
   687                           ; 2 bytes @ 0x6
   688   000007                     	ds	1
   689   000008                     uartEnd@i:
   690                           	callstack 0
   691   000008                     uarttx@i_782:
   692                           	callstack 0
   693                           
   694                           ; 2 bytes @ 0x7
   695   000008                     	ds	1
   696   000009                     ___xxtofl@sign:
   697                           	callstack 0
   698   000009                     ??___flmul:
   699   000009                     ??_abs:
   700                           
   701                           ; 1 bytes @ 0x8
   702   000009                     	ds	1
   703   00000A                     ___xxtofl@exp:
   704                           	callstack 0
   705   00000A                     uartStart@i:
   706                           	callstack 0
   707   00000A                     uarttx@i_783:
   708                           	callstack 0
   709                           
   710                           ; 2 bytes @ 0x9
   711   00000A                     	ds	1
   712   00000B                     vfpfcnvrt@fp:
   713                           	callstack 0
   714   00000B                     ___xxtofl@arg:
   715                           	callstack 0
   716                           
   717                           ; 4 bytes @ 0xA
   718   00000B                     	ds	1
   719   00000C                     vfpfcnvrt@fmt:
   720                           	callstack 0
   721                           
   722                           ; 1 bytes @ 0xB
   723   00000C                     	ds	1
   724   00000D                     ___flmul@sign:
   725                           	callstack 0
   726   00000D                     vfpfcnvrt@ap:
   727                           	callstack 0
   728                           
   729                           ; 1 bytes @ 0xC
   730   00000D                     	ds	1
   731   00000E                     ___flmul@grs:
   732                           	callstack 0
   733   00000E                     ??_vfpfcnvrt:
   734                           
   735                           ; 1 bytes @ 0xD
   736   00000E                     	ds	1
   737   00000F                     ?___fldiv:
   738                           	callstack 0
   739   00000F                     vfpfcnvrt@done:
   740                           	callstack 0
   741   00000F                     ___fldiv@b:
   742                           	callstack 0
   743                           
   744                           ; 4 bytes @ 0xE
   745   00000F                     	ds	1
   746   000010                     vfpfcnvrt@cp:
   747                           	callstack 0
   748                           
   749                           ; 1 bytes @ 0xF
   750   000010                     	ds	1
   751   000011                     vfpfcnvrt@convarg:
   752                           	callstack 0
   753                           
   754                           ; 4 bytes @ 0x10
   755   000011                     	ds	1
   756   000012                     ___flmul@aexp:
   757                           	callstack 0
   758                           
   759                           ; 1 bytes @ 0x11
   760   000012                     	ds	1
   761   000013                     ___flmul@bexp:
   762                           	callstack 0
   763   000013                     ___fldiv@a:
   764                           	callstack 0
   765                           
   766                           ; 4 bytes @ 0x12
   767   000013                     	ds	1
   768   000014                     ___flmul@prod:
   769                           	callstack 0
   770                           
   771                           ; 4 bytes @ 0x13
   772   000014                     	ds	1
   773   000015                     vfpfcnvrt@c:
   774                           	callstack 0
   775                           
   776                           ; 1 bytes @ 0x14
   777   000015                     	ds	1
   778   000016                     ?_vfprintf:
   779                           	callstack 0
   780   000016                     vfprintf@fp:
   781                           	callstack 0
   782                           
   783                           ; 1 bytes @ 0x15
   784   000016                     	ds	1
   785   000017                     vfprintf@fmt:
   786                           	callstack 0
   787   000017                     ??___fldiv:
   788                           
   789                           ; 1 bytes @ 0x16
   790   000017                     	ds	1
   791   000018                     vfprintf@ap:
   792                           	callstack 0
   793   000018                     ___flmul@temp:
   794                           	callstack 0
   795                           
   796                           ; 2 bytes @ 0x17
   797   000018                     	ds	1
   798   000019                     vfprintf@cfmt:
   799                           	callstack 0
   800   000019                     adcsuccess@i:
   801                           	callstack 0
   802   000019                     
   803                           ; 1 bytes @ 0x18
   804   000019                     	ds	1
   805   00001A                     ?_sprintf:
   806                           	callstack 0
   807   00001A                     ?___fltol:
   808                           	callstack 0
   809   00001A                     sprintf@s:
   810                           	callstack 0
   811   00001A                     uartsuccess@i:
   812                           	callstack 0
   813   00001A                     ___fltol@f1:
   814                           	callstack 0
   815                           
   816                           ; 4 bytes @ 0x19
   817   00001A                     	ds	1
   818   00001B                     sprintf@fmt:
   819                           	callstack 0
   820   00001B                     ___fldiv@rem:
   821                           	callstack 0
   822                           
   823                           ; 4 bytes @ 0x1A
   824   00001B                     	ds	3
   825   00001E                     sprintf@ap:
   826                           	callstack 0
   827   00001E                     ??___fltol:
   828                           
   829                           ; 1 bytes @ 0x1D
   830   00001E                     	ds	1
   831   00001F                     ___fldiv@sign:
   832                           	callstack 0
   833   00001F                     sprintf@f:
   834                           	callstack 0
   835                           
   836                           ; 11 bytes @ 0x1E
   837   00001F                     	ds	1
   838   000020                     ___fldiv@new_exp:
   839                           	callstack 0
   840                           
   841                           ; 2 bytes @ 0x1F
   842   000020                     	ds	2
   843   000022                     ___fltol@sign1:
   844                           	callstack 0
   845   000022                     ___fldiv@grs:
   846                           	callstack 0
   847                           
   848                           ; 4 bytes @ 0x21
   849   000022                     	ds	1
   850   000023                     ___fltol@exp1:
   851                           	callstack 0
   852                           
   853                           ; 1 bytes @ 0x22
   854   000023                     	ds	3
   855   000026                     ___fldiv@bexp:
   856                           	callstack 0
   857                           
   858                           ; 1 bytes @ 0x25
   859   000026                     	ds	1
   860   000027                     ___fldiv@aexp:
   861                           	callstack 0
   862                           
   863                           ; 1 bytes @ 0x26
   864   000027                     	ds	3
   865   00002A                     dectohex@adcvalue:
   866                           	callstack 0
   867                           
   868                           ; 2 bytes @ 0x29
   869   00002A                     	ds	2
   870   00002C                     dectohex@Anum:
   871                           	callstack 0
   872                           
   873                           ; 1 bytes @ 0x2B
   874   00002C                     	ds	1
   875   00002D                     dectohex@numberValue:
   876                           	callstack 0
   877   00002D                     
   878                           ; 1 bytes @ 0x2C
   879   00002D                     	ds	20
   880   000041                     dectohex@V:
   881                           	callstack 0
   882                           
   883                           ; 4 bytes @ 0x40
   884   000041                     	ds	4
   885   000045                     dectohex@current:
   886                           	callstack 0
   887                           
   888                           ; 4 bytes @ 0x44
   889   000045                     	ds	4
   890   000049                     dectohex@currentInt:
   891                           	callstack 0
   892                           
   893                           ; 2 bytes @ 0x48
   894   000049                     	ds	2
   895   00004B                     dectohex@number:
   896                           	callstack 0
   897                           
   898                           ; 2 bytes @ 0x4A
   899   00004B                     	ds	2
   900   00004D                     ??_main:
   901                           
   902                           ; 1 bytes @ 0x4C
   903   00004D                     	ds	2
   904                           
   905 ;;
   906 ;;Main: autosize = 0, tempsize = 2, incstack = 0, save=0
   907 ;;
   908 ;; *************** function _main *****************
   909 ;; Defined at:
   910 ;;		line 194 in file "main.c"
   911 ;; Parameters:    Size  Location     Type
   912 ;;		None
   913 ;; Auto vars:     Size  Location     Type
   914 ;;  j               2   33[BANK0 ] int 
   915 ;;  i               2   36[BANK0 ] int 
   916 ;;  results        26    0[BANK0 ] unsigned short [13]
   917 ;;  label           7   26[BANK0 ] unsigned char [7]
   918 ;;  ChSEL           1   35[BANK0 ] unsigned char 
   919 ;; Return value:  Size  Location     Type
   920 ;;                  1    wreg      void 
   921 ;; Registers used:
   922 ;;		wreg, fsr1l, fsr1h, fsr2l, fsr2h, status,2, status,0, tblptrl, tblptrh, tblptru, prodl, prodh, cstack
   923 ;; Tracked objects:
   924 ;;		On entry : 0/0
   925 ;;		On exit  : 0/0
   926 ;;		Unchanged: 0/0
   927 ;; Data sizes:     COMRAM   BANK0   BANK1   BANK2   BANK3   BANK4   BANK5   BANK6   BANK7   BANK8   BANK9  BANK10  BANK1
      +1  BANK12  BANK13  BANK14  BANK15
   928 ;;      Params:         0       0       0       0       0       0       0       0       0       0       0       0       
      +0       0       0       0       0
   929 ;;      Locals:         0      38       0       0       0       0       0       0       0       0       0       0       
      +0       0       0       0       0
   930 ;;      Temps:          2       0       0       0       0       0       0       0       0       0       0       0       
      +0       0       0       0       0
   931 ;;      Totals:         2      38       0       0       0       0       0       0       0       0       0       0       
      +0       0       0       0       0
   932 ;;Total ram usage:       40 bytes
   933 ;; Hardware stack levels required when called: 6
   934 ;; This function calls:
   935 ;;		___awdiv
   936 ;;		___awmod
   937 ;;		_adcsetup
   938 ;;		_adcsuccess
   939 ;;		_dectohex
   940 ;;		_uartEnd
   941 ;;		_uartStart
   942 ;;		_uartsetup
   943 ;;		_uartsuccess
   944 ;; This function is called by:
   945 ;;		Startup code after reset
   946 ;; This function uses a non-reentrant model
   947 ;;
   948                           
   949                           	psect	text0
   950   0017D0                     __ptext0:
   951                           	callstack 0
   952   0017D0                     _main:
   953                           	callstack 25
   954   0017D0                     
   955                           ;main.c: 196:     OSCCONbits.IRCF = 0b111;
   956   0017D0  0E70               	movlw	112
   957   0017D2  12D3               	iorwf	211,f,c	;volatile
   958                           
   959                           ;main.c: 197:     while(OSCCONbits.HFIOFS == 0){
   960   0017D4  EFF3  F00B         	goto	l2367
   961   0017D8                     l2365:
   962                           
   963                           ;main.c: 198:         _delay((unsigned long)((10)*(16000000UL/4000.0)));
   964   0017D8  0E34               	movlw	52
   965   0017DA  6E4D               	movwf	??_main^0,c
   966   0017DC  0EF2               	movlw	242
   967   0017DE                     u2317:
   968   0017DE  2EE8               	decfsz	wreg,f,c
   969   0017E0  D7FE               	bra	u2317
   970   0017E2  2E4D               	decfsz	??_main^0,f,c
   971   0017E4  D7FC               	bra	u2317
   972   0017E6                     l2367:
   973                           
   974                           ;main.c: 197:     while(OSCCONbits.HFIOFS == 0){
   975   0017E6  A4D3               	btfss	211,2,c	;volatile
   976   0017E8  EFF8  F00B         	goto	u2221
   977   0017EC  EFFA  F00B         	goto	u2220
   978   0017F0                     u2221:
   979   0017F0  EFEC  F00B         	goto	l2365
   980   0017F4                     u2220:
   981   0017F4                     
   982                           ;main.c: 201:     uartsetup();
   983   0017F4  EC76  F012         	call	_uartsetup	;wreg free
   984   0017F8                     
   985                           ;main.c: 202:     uartsuccess();
   986   0017F8  EC34  F011         	call	_uartsuccess	;wreg free
   987   0017FC                     
   988                           ;main.c: 203:      _delay((unsigned long)((10)*(16000000UL/4000.0)));
   989   0017FC  0E34               	movlw	52
   990   0017FE  6E4D               	movwf	??_main^0,c
   991   001800  0EF2               	movlw	242
   992   001802                     u2327:
   993   001802  2EE8               	decfsz	wreg,f,c
   994   001804  D7FE               	bra	u2327
   995   001806  2E4D               	decfsz	??_main^0,f,c
   996   001808  D7FC               	bra	u2327
   997   00180A                     
   998                           ;main.c: 204:     adcsetup();
   999   00180A  ECF5  F010         	call	_adcsetup	;wreg free
  1000   00180E                     
  1001                           ;main.c: 205:     adcsuccess();
  1002   00180E  EC66  F011         	call	_adcsuccess	;wreg free
  1003   001812                     
  1004                           ;main.c: 207:     uint16_t results[] = {0,0,0,0,0,0,0,0,0,0,0,0,0};
  1005   001812  EE20  F0C9         	lfsr	2,main@results
  1006   001816  0E19               	movlw	25
  1007   001818                     u2231:
  1008   001818  6ADE               	clrf	postinc2,c
  1009   00181A  06E8               	decf	wreg,f,c
  1010   00181C  E2FD               	bc	u2231
  1011   00181E                     
  1012                           ;main.c: 208:     uint8_t ChSEL = 0b00000;
  1013   00181E  0100               	movlb	0	; () banked
  1014   001820  6BEC               	clrf	main@ChSEL& (0+255),b
  1015   001822                     
  1016                           ; BSR set to: 0
  1017                           ;main.c: 209:     char label[7];;main.c: 210:     label[0] = '#';
  1018   001822  0E23               	movlw	35
  1019   001824  6FE3               	movwf	main@label& (0+255),b
  1020   001826                     
  1021                           ; BSR set to: 0
  1022                           ;main.c: 211:     label[1] = 'A';
  1023   001826  0E41               	movlw	65
  1024   001828  6FE4               	movwf	(main@label+1)& (0+255),b
  1025   00182A                     
  1026                           ; BSR set to: 0
  1027                           ;main.c: 212:     _delay((unsigned long)((3000)*(16000000UL/4000.0)));
  1028   00182A  0E3D               	movlw	61
  1029   00182C  6E4E               	movwf	(??_main+1)^0,c
  1030   00182E  0EE1               	movlw	225
  1031   001830  6E4D               	movwf	??_main^0,c
  1032   001832  0E40               	movlw	64
  1033   001834                     u2337:
  1034   001834  2EE8               	decfsz	wreg,f,c
  1035   001836  D7FE               	bra	u2337
  1036   001838  2E4D               	decfsz	??_main^0,f,c
  1037   00183A  D7FC               	bra	u2337
  1038   00183C  2E4E               	decfsz	(??_main+1)^0,f,c
  1039   00183E  D7FA               	bra	u2337
  1040   001840                     l2389:
  1041                           
  1042                           ;main.c: 215:         for(int i = 0; i <= 12; i++){
  1043   001840  0100               	movlb	0	; () banked
  1044   001842  6BEE               	clrf	(main@i+1)& (0+255),b
  1045   001844  0E00               	movlw	0
  1046   001846  6FED               	movwf	main@i& (0+255),b
  1047   001848                     l2395:
  1048                           
  1049                           ; BSR set to: 0
  1050                           ;main.c: 216:             if(i == 0){
  1051   001848  51ED               	movf	main@i& (0+255),w,b
  1052   00184A  11EE               	iorwf	(main@i+1)& (0+255),w,b
  1053   00184C  A4D8               	btfss	status,2,c
  1054   00184E  EF2B  F00C         	goto	u2241
  1055   001852  EF2D  F00C         	goto	u2240
  1056   001856                     u2241:
  1057   001856  EF2F  F00C         	goto	l2399
  1058   00185A                     u2240:
  1059   00185A                     
  1060                           ; BSR set to: 0
  1061                           ;main.c: 217:                 uartStart();
  1062   00185A  EC98  F011         	call	_uartStart	;wreg free
  1063   00185E                     l2399:
  1064                           
  1065                           ;main.c: 219:             ADCON0bits.CHS = ChSEL;
  1066   00185E  C0EC  F04D         	movff	main@ChSEL,??_main
  1067   001862  464D               	rlncf	??_main^0,f,c
  1068   001864  464D               	rlncf	??_main^0,f,c
  1069   001866  50C2               	movf	194,w,c	;volatile
  1070   001868  184D               	xorwf	??_main^0,w,c
  1071   00186A  0B83               	andlw	-125
  1072   00186C  184D               	xorwf	??_main^0,w,c
  1073   00186E  6EC2               	movwf	194,c	;volatile
  1074   001870                     
  1075                           ;main.c: 220:             _delay((unsigned long)((5)*(16000000UL/4000.0)));
  1076   001870  0E1A               	movlw	26
  1077   001872  6E4D               	movwf	??_main^0,c
  1078   001874  0EF8               	movlw	248
  1079   001876                     u2347:
  1080   001876  2EE8               	decfsz	wreg,f,c
  1081   001878  D7FE               	bra	u2347
  1082   00187A  2E4D               	decfsz	??_main^0,f,c
  1083   00187C  D7FC               	bra	u2347
  1084   00187E  D000               	nop2	
  1085   001880                     
  1086                           ;main.c: 222:             for(int j = 0; j <= 3; j++){
  1087   001880  0100               	movlb	0	; () banked
  1088   001882  6BEB               	clrf	(main@j+1)& (0+255),b
  1089   001884  0E00               	movlw	0
  1090   001886  6FEA               	movwf	main@j& (0+255),b
  1091   001888                     l141:
  1092                           
  1093                           ; BSR set to: 0
  1094                           ;main.c: 223:             ADCON0bits.GO_nDONE = 1;
  1095   001888  82C2               	bsf	194,1,c	;volatile
  1096   00188A                     l143:
  1097   00188A  B2C2               	btfsc	194,1,c	;volatile
  1098   00188C  EF4A  F00C         	goto	u2251
  1099   001890  EF4C  F00C         	goto	u2250
  1100   001894                     u2251:
  1101   001894  EF45  F00C         	goto	l143
  1102   001898                     u2250:
  1103   001898                     
  1104                           ;main.c: 225:             }
  1105   001898  0100               	movlb	0	; () banked
  1106   00189A  4BEA               	infsnz	main@j& (0+255),f,b
  1107   00189C  2BEB               	incf	(main@j+1)& (0+255),f,b
  1108   00189E                     
  1109                           ; BSR set to: 0
  1110   00189E  BFEB               	btfsc	(main@j+1)& (0+255),7,b
  1111   0018A0  EF5B  F00C         	goto	u2261
  1112   0018A4  51EB               	movf	(main@j+1)& (0+255),w,b
  1113   0018A6  E109               	bnz	u2260
  1114   0018A8  0E04               	movlw	4
  1115   0018AA  5DEA               	subwf	main@j& (0+255),w,b
  1116   0018AC  A0D8               	btfss	status,0,c
  1117   0018AE  EF5B  F00C         	goto	u2261
  1118   0018B2  EF5D  F00C         	goto	u2260
  1119   0018B6                     u2261:
  1120   0018B6  EF44  F00C         	goto	l141
  1121   0018BA                     u2260:
  1122   0018BA                     
  1123                           ; BSR set to: 0
  1124                           ;main.c: 227:             ADCON0bits.GO_nDONE = 1;
  1125   0018BA  82C2               	bsf	194,1,c	;volatile
  1126   0018BC                     l146:
  1127   0018BC  B2C2               	btfsc	194,1,c	;volatile
  1128   0018BE  EF63  F00C         	goto	u2271
  1129   0018C2  EF65  F00C         	goto	u2270
  1130   0018C6                     u2271:
  1131   0018C6  EF5E  F00C         	goto	l146
  1132   0018CA                     u2270:
  1133   0018CA                     
  1134                           ;main.c: 229:             results[i] = ((uint16_t)ADRESH << 8) | ADRESL;
  1135   0018CA  50C4               	movf	196,w,c	;volatile
  1136   0018CC  6E4E               	movwf	(??_main+1)^0,c
  1137   0018CE  50C3               	movf	195,w,c	;volatile
  1138   0018D0  6E4D               	movwf	??_main^0,c
  1139   0018D2  0100               	movlb	0	; () banked
  1140   0018D4  51ED               	movf	main@i& (0+255),w,b
  1141   0018D6  0D02               	mullw	2
  1142   0018D8  50F3               	movf	243,w,c
  1143   0018DA  0FC9               	addlw	low main@results
  1144   0018DC  6ED9               	movwf	fsr2l,c
  1145   0018DE  6ADA               	clrf	fsr2h,c
  1146   0018E0  C04D  FFDE         	movff	??_main,postinc2
  1147   0018E4  C04E  FFDD         	movff	??_main+1,postdec2
  1148   0018E8                     
  1149                           ; BSR set to: 0
  1150                           ;main.c: 231:             if (ChSEL < 10) {
  1151   0018E8  0E0A               	movlw	10
  1152   0018EA  61EC               	cpfslt	main@ChSEL& (0+255),b
  1153   0018EC  EF7A  F00C         	goto	u2281
  1154   0018F0  EF7C  F00C         	goto	u2280
  1155   0018F4                     u2281:
  1156   0018F4  EF86  F00C         	goto	l2425
  1157   0018F8                     u2280:
  1158   0018F8                     
  1159                           ; BSR set to: 0
  1160                           ;main.c: 232:                 label[2] = '0';
  1161   0018F8  0E30               	movlw	48
  1162   0018FA  6FE5               	movwf	(main@label+2)& (0+255),b
  1163   0018FC                     
  1164                           ; BSR set to: 0
  1165                           ;main.c: 233:                 label[3] = '0' + ChSEL;
  1166   0018FC  51EC               	movf	main@ChSEL& (0+255),w,b
  1167   0018FE  0F30               	addlw	48
  1168   001900  6FE6               	movwf	(main@label+3)& (0+255),b
  1169   001902                     l2421:
  1170                           
  1171                           ; BSR set to: 0
  1172                           ;main.c: 234:                 label[4] = ':';
  1173   001902  0E3A               	movlw	58
  1174   001904  6FE7               	movwf	(main@label+4)& (0+255),b
  1175   001906                     
  1176                           ; BSR set to: 0
  1177                           ;main.c: 235:                 label[5] = '\0';
  1178   001906  6BE8               	clrf	(main@label+5)& (0+255),b
  1179                           
  1180                           ;main.c: 236:             } else {
  1181   001908  EFA0  F00C         	goto	l2431
  1182   00190C                     l2425:
  1183                           
  1184                           ; BSR set to: 0
  1185                           ;main.c: 237:                 label[2] = '0' + (ChSEL / 10);
  1186   00190C  C0EC  F001         	movff	main@ChSEL,___awdiv@dividend
  1187   001910  6A02               	clrf	(___awdiv@dividend+1)^0,c
  1188   001912  6A04               	clrf	(___awdiv@divisor+1)^0,c
  1189   001914  0E0A               	movlw	10
  1190   001916  6E03               	movwf	___awdiv@divisor^0,c
  1191   001918  ECE9  F00F         	call	___awdiv	;wreg free
  1192   00191C  5001               	movf	?___awdiv^0,w,c
  1193   00191E  0F30               	addlw	48
  1194   001920  0100               	movlb	0	; () banked
  1195   001922  6FE5               	movwf	(main@label+2)& (0+255),b
  1196                           
  1197                           ;main.c: 238:                 label[3] = '0' + (ChSEL % 10);
  1198   001924  C0EC  F001         	movff	main@ChSEL,___awmod@dividend
  1199   001928  6A02               	clrf	(___awmod@dividend+1)^0,c
  1200   00192A  6A04               	clrf	(___awmod@divisor+1)^0,c
  1201   00192C  0E0A               	movlw	10
  1202   00192E  6E03               	movwf	___awmod@divisor^0,c
  1203   001930  EC49  F010         	call	___awmod	;wreg free
  1204   001934  5001               	movf	?___awmod^0,w,c
  1205   001936  0F30               	addlw	48
  1206   001938  0100               	movlb	0	; () banked
  1207   00193A  6FE6               	movwf	(main@label+3)& (0+255),b
  1208   00193C  EF81  F00C         	goto	l2421
  1209   001940                     l2431:
  1210                           
  1211                           ; BSR set to: 0
  1212                           ;main.c: 243:             dectohex(results[i], label);
  1213   001940  51ED               	movf	main@i& (0+255),w,b
  1214   001942  0D02               	mullw	2
  1215   001944  50F3               	movf	243,w,c
  1216   001946  0FC9               	addlw	low main@results
  1217   001948  6ED9               	movwf	fsr2l,c
  1218   00194A  6ADA               	clrf	fsr2h,c
  1219   00194C  CFDE F02A          	movff	postinc2,dectohex@adcvalue
  1220   001950  CFDD F02B          	movff	postdec2,dectohex@adcvalue+1
  1221   001954  0EE3               	movlw	low main@label
  1222   001956  6E2C               	movwf	dectohex@Anum^0,c
  1223   001958  EC0B  F00F         	call	_dectohex	;wreg free
  1224   00195C                     
  1225                           ;main.c: 244:               ChSEL++;
  1226   00195C  0100               	movlb	0	; () banked
  1227   00195E  2BEC               	incf	main@ChSEL& (0+255),f,b
  1228   001960                     
  1229                           ; BSR set to: 0
  1230                           ;main.c: 245:             if(i == 12){
  1231   001960  0E0C               	movlw	12
  1232   001962  19ED               	xorwf	main@i& (0+255),w,b
  1233   001964  11EE               	iorwf	(main@i+1)& (0+255),w,b
  1234   001966  A4D8               	btfss	status,2,c
  1235   001968  EFB8  F00C         	goto	u2291
  1236   00196C  EFBA  F00C         	goto	u2290
  1237   001970                     u2291:
  1238   001970  EFBC  F00C         	goto	l2439
  1239   001974                     u2290:
  1240   001974                     
  1241                           ; BSR set to: 0
  1242                           ;main.c: 246:                 uartEnd();
  1243   001974  ECC3  F011         	call	_uartEnd	;wreg free
  1244   001978                     l2439:
  1245                           
  1246                           ;main.c: 249:         }
  1247   001978  0100               	movlb	0	; () banked
  1248   00197A  4BED               	infsnz	main@i& (0+255),f,b
  1249   00197C  2BEE               	incf	(main@i+1)& (0+255),f,b
  1250   00197E                     
  1251                           ; BSR set to: 0
  1252   00197E  BFEE               	btfsc	(main@i+1)& (0+255),7,b
  1253   001980  EFCB  F00C         	goto	u2301
  1254   001984  51EE               	movf	(main@i+1)& (0+255),w,b
  1255   001986  E109               	bnz	u2300
  1256   001988  0E0D               	movlw	13
  1257   00198A  5DED               	subwf	main@i& (0+255),w,b
  1258   00198C  A0D8               	btfss	status,0,c
  1259   00198E  EFCB  F00C         	goto	u2301
  1260   001992  EFCD  F00C         	goto	u2300
  1261   001996                     u2301:
  1262   001996  EF24  F00C         	goto	l2395
  1263   00199A                     u2300:
  1264   00199A                     
  1265                           ; BSR set to: 0
  1266                           ;main.c: 250:         ChSEL = 0b00000;
  1267   00199A  6BEC               	clrf	main@ChSEL& (0+255),b
  1268   00199C                     
  1269                           ; BSR set to: 0
  1270                           ;main.c: 251:        _delay((unsigned long)((500)*(16000000UL/4000.0)));
  1271   00199C  0E0B               	movlw	11
  1272   00199E  6E4E               	movwf	(??_main+1)^0,c
  1273   0019A0  0E26               	movlw	38
  1274   0019A2  6E4D               	movwf	??_main^0,c
  1275   0019A4  0E5E               	movlw	94
  1276   0019A6                     u2357:
  1277   0019A6  2EE8               	decfsz	wreg,f,c
  1278   0019A8  D7FE               	bra	u2357
  1279   0019AA  2E4D               	decfsz	??_main^0,f,c
  1280   0019AC  D7FC               	bra	u2357
  1281   0019AE  2E4E               	decfsz	(??_main+1)^0,f,c
  1282   0019B0  D7FA               	bra	u2357
  1283   0019B2  EF20  F00C         	goto	l2389
  1284   0019B6  EFFE  F07F         	goto	start
  1285   0019BA                     __end_of_main:
  1286                           	callstack 0
  1287                           
  1288 ;; *************** function _uartsuccess *****************
  1289 ;; Defined at:
  1290 ;;		line 30 in file "main.c"
  1291 ;; Parameters:    Size  Location     Type
  1292 ;;		None
  1293 ;; Auto vars:     Size  Location     Type
  1294 ;;  i               2   25[COMRAM] int 
  1295 ;;  message        24    1[COMRAM] unsigned char [24]
  1296 ;; Return value:  Size  Location     Type
  1297 ;;                  1    wreg      void 
  1298 ;; Registers used:
  1299 ;;		wreg, fsr1l, fsr1h, fsr2l, fsr2h, status,2, status,0
  1300 ;; Tracked objects:
  1301 ;;		On entry : 0/0
  1302 ;;		On exit  : 0/0
  1303 ;;		Unchanged: 0/0
  1304 ;; Data sizes:     COMRAM   BANK0   BANK1   BANK2   BANK3   BANK4   BANK5   BANK6   BANK7   BANK8   BANK9  BANK10  BANK1
      +1  BANK12  BANK13  BANK14  BANK15
  1305 ;;      Params:         0       0       0       0       0       0       0       0       0       0       0       0       
      +0       0       0       0       0
  1306 ;;      Locals:        26       0       0       0       0       0       0       0       0       0       0       0       
      +0       0       0       0       0
  1307 ;;      Temps:          1       0       0       0       0       0       0       0       0       0       0       0       
      +0       0       0       0       0
  1308 ;;      Totals:        27       0       0       0       0       0       0       0       0       0       0       0       
      +0       0       0       0       0
  1309 ;;Total ram usage:       27 bytes
  1310 ;; Hardware stack levels used: 1
  1311 ;; This function calls:
  1312 ;;		Nothing
  1313 ;; This function is called by:
  1314 ;;		_main
  1315 ;; This function uses a non-reentrant model
  1316 ;;
  1317                           
  1318                           	psect	text1
  1319   002268                     __ptext1:
  1320                           	callstack 0
  1321   002268                     _uartsuccess:
  1322                           	callstack 30
  1323   002268                     
  1324                           ;main.c: 31:     char message[] = "UART setup successful\r\n";
  1325   002268  EE20  F09A         	lfsr	2,uartsuccess@F6341
  1326   00226C  EE10  F002         	lfsr	1,uartsuccess@message
  1327   002270  0E17               	movlw	23
  1328   002272                     u2091:
  1329   002272  CFDB FFE3          	movff	plusw2,plusw1
  1330   002276  06E8               	decf	wreg,f,c
  1331   002278  E2FC               	bc	u2091
  1332   00227A                     
  1333                           ;main.c: 32: for (int i = 0; message[i] != '\0'; i++) {
  1334   00227A  6A1B               	clrf	(uartsuccess@i+1)^0,c
  1335   00227C  0E00               	movlw	0
  1336   00227E  6E1A               	movwf	uartsuccess@i^0,c
  1337   002280  EF51  F011         	goto	l2291
  1338   002284                     l55:
  1339                           
  1340                           ;main.c: 33:         while(PIR1bits.TXIF == 0){;
  1341   002284  A89E               	btfss	158,4,c	;volatile
  1342   002286  EF47  F011         	goto	u2101
  1343   00228A  EF49  F011         	goto	u2100
  1344   00228E                     u2101:
  1345   00228E  EF42  F011         	goto	l55
  1346   002292                     u2100:
  1347   002292                     
  1348                           ;main.c: 36:     TXREG1 = message[i];
  1349   002292  501A               	movf	uartsuccess@i^0,w,c
  1350   002294  0F02               	addlw	low uartsuccess@message
  1351   002296  6ED9               	movwf	fsr2l,c
  1352   002298  6ADA               	clrf	fsr2h,c
  1353   00229A  50DF               	movf	indf2,w,c
  1354   00229C  6EAD               	movwf	173,c	;volatile
  1355   00229E                     
  1356                           ;main.c: 37: }
  1357   00229E  4A1A               	infsnz	uartsuccess@i^0,f,c
  1358   0022A0  2A1B               	incf	(uartsuccess@i+1)^0,f,c
  1359   0022A2                     l2291:
  1360   0022A2  501A               	movf	uartsuccess@i^0,w,c
  1361   0022A4  0F02               	addlw	low uartsuccess@message
  1362   0022A6  6ED9               	movwf	fsr2l,c
  1363   0022A8  6ADA               	clrf	fsr2h,c
  1364   0022AA  50DF               	movf	indf2,w,c
  1365   0022AC  A4D8               	btfss	status,2,c
  1366   0022AE  EF5B  F011         	goto	u2111
  1367   0022B2  EF5D  F011         	goto	u2110
  1368   0022B6                     u2111:
  1369   0022B6  EF42  F011         	goto	l55
  1370   0022BA                     u2110:
  1371   0022BA                     
  1372                           ;main.c: 38:     _delay((unsigned long)((5)*(16000000UL/4000.0)));
  1373   0022BA  0E1A               	movlw	26
  1374   0022BC  6E01               	movwf	??_uartsuccess^0,c
  1375   0022BE  0EF8               	movlw	248
  1376   0022C0                     u2367:
  1377   0022C0  2EE8               	decfsz	wreg,f,c
  1378   0022C2  D7FE               	bra	u2367
  1379   0022C4  2E01               	decfsz	??_uartsuccess^0,f,c
  1380   0022C6  D7FC               	bra	u2367
  1381   0022C8  D000               	nop2	
  1382   0022CA  0012               	return		;funcret
  1383   0022CC                     __end_of_uartsuccess:
  1384                           	callstack 0
  1385                           
  1386 ;; *************** function _uartsetup *****************
  1387 ;; Defined at:
  1388 ;;		line 52 in file "main.c"
  1389 ;; Parameters:    Size  Location     Type
  1390 ;;		None
  1391 ;; Auto vars:     Size  Location     Type
  1392 ;;		None
  1393 ;; Return value:  Size  Location     Type
  1394 ;;                  1    wreg      void 
  1395 ;; Registers used:
  1396 ;;		wreg, status,2
  1397 ;; Tracked objects:
  1398 ;;		On entry : 0/0
  1399 ;;		On exit  : 0/0
  1400 ;;		Unchanged: 0/0
  1401 ;; Data sizes:     COMRAM   BANK0   BANK1   BANK2   BANK3   BANK4   BANK5   BANK6   BANK7   BANK8   BANK9  BANK10  BANK1
      +1  BANK12  BANK13  BANK14  BANK15
  1402 ;;      Params:         0       0       0       0       0       0       0       0       0       0       0       0       
      +0       0       0       0       0
  1403 ;;      Locals:         0       0       0       0       0       0       0       0       0       0       0       0       
      +0       0       0       0       0
  1404 ;;      Temps:          0       0       0       0       0       0       0       0       0       0       0       0       
      +0       0       0       0       0
  1405 ;;      Totals:         0       0       0       0       0       0       0       0       0       0       0       0       
      +0       0       0       0       0
  1406 ;;Total ram usage:        0 bytes
  1407 ;; Hardware stack levels used: 1
  1408 ;; This function calls:
  1409 ;;		Nothing
  1410 ;; This function is called by:
  1411 ;;		_main
  1412 ;; This function uses a non-reentrant model
  1413 ;;
  1414                           
  1415                           	psect	text2
  1416   0024EC                     __ptext2:
  1417                           	callstack 0
  1418   0024EC                     _uartsetup:
  1419                           	callstack 30
  1420   0024EC                     
  1421                           ;main.c: 54:     ANSELCbits.ANSC6 = 0;
  1422   0024EC  010F               	movlb	15	; () banked
  1423   0024EE  9D3A               	bcf	58,6,b	;volatile
  1424                           
  1425                           ;main.c: 55:     TRISCbits.TRISC6 = 0;
  1426   0024F0  9C94               	bcf	148,6,c	;volatile
  1427                           
  1428                           ;main.c: 57:     BAUDCON1bits.CKTXP = 0;
  1429   0024F2  98B8               	bcf	184,4,c	;volatile
  1430                           
  1431                           ;main.c: 58:     BAUDCON1bits.BRG16 = 0;
  1432   0024F4  96B8               	bcf	184,3,c	;volatile
  1433   0024F6                     
  1434                           ; BSR set to: 15
  1435                           ;main.c: 60:     SPBRG1 = 16;
  1436   0024F6  0E10               	movlw	16
  1437   0024F8  6EAF               	movwf	175,c	;volatile
  1438   0024FA                     
  1439                           ; BSR set to: 15
  1440                           ;main.c: 63:     RCSTA1bits.SPEN = 1;
  1441   0024FA  8EAB               	bsf	171,7,c	;volatile
  1442   0024FC                     
  1443                           ; BSR set to: 15
  1444                           ;main.c: 65:     TXSTA1bits.TXEN = 1;
  1445   0024FC  8AAC               	bsf	172,5,c	;volatile
  1446   0024FE                     
  1447                           ; BSR set to: 15
  1448                           ;main.c: 66:     TXSTA1bits.SYNC = 0;
  1449   0024FE  98AC               	bcf	172,4,c	;volatile
  1450   002500                     
  1451                           ; BSR set to: 15
  1452                           ;main.c: 68:     TXSTA1bits.TX9 = 0;
  1453   002500  9CAC               	bcf	172,6,c	;volatile
  1454   002502                     
  1455                           ; BSR set to: 15
  1456                           ;main.c: 69:     TXSTA1bits.BRGH = 1;
  1457   002502  84AC               	bsf	172,2,c	;volatile
  1458   002504                     
  1459                           ; BSR set to: 15
  1460   002504  0012               	return		;funcret
  1461   002506                     __end_of_uartsetup:
  1462                           	callstack 0
  1463                           
  1464 ;; *************** function _uartStart *****************
  1465 ;; Defined at:
  1466 ;;		line 138 in file "main.c"
  1467 ;; Parameters:    Size  Location     Type
  1468 ;;		None
  1469 ;; Auto vars:     Size  Location     Type
  1470 ;;  i               2    9[COMRAM] int 
  1471 ;;  startMarker     9    0[COMRAM] const unsigned char [9]
  1472 ;; Return value:  Size  Location     Type
  1473 ;;                  1    wreg      void 
  1474 ;; Registers used:
  1475 ;;		wreg, fsr2l, fsr2h, status,2, status,0, tblptrl, tblptrh, tblptru
  1476 ;; Tracked objects:
  1477 ;;		On entry : 0/0
  1478 ;;		On exit  : 0/0
  1479 ;;		Unchanged: 0/0
  1480 ;; Data sizes:     COMRAM   BANK0   BANK1   BANK2   BANK3   BANK4   BANK5   BANK6   BANK7   BANK8   BANK9  BANK10  BANK1
      +1  BANK12  BANK13  BANK14  BANK15
  1481 ;;      Params:         0       0       0       0       0       0       0       0       0       0       0       0       
      +0       0       0       0       0
  1482 ;;      Locals:        11       0       0       0       0       0       0       0       0       0       0       0       
      +0       0       0       0       0
  1483 ;;      Temps:          0       0       0       0       0       0       0       0       0       0       0       0       
      +0       0       0       0       0
  1484 ;;      Totals:        11       0       0       0       0       0       0       0       0       0       0       0       
      +0       0       0       0       0
  1485 ;;Total ram usage:       11 bytes
  1486 ;; Hardware stack levels used: 1
  1487 ;; This function calls:
  1488 ;;		Nothing
  1489 ;; This function is called by:
  1490 ;;		_main
  1491 ;; This function uses a non-reentrant model
  1492 ;;
  1493                           
  1494                           	psect	text3
  1495   002330                     __ptext3:
  1496                           	callstack 0
  1497   002330                     _uartStart:
  1498                           	callstack 30
  1499   002330                     
  1500                           ;main.c: 139:     const char startMarker[] = "#START\r\n";
  1501   002330  0E01               	movlw	low uartStart@F6351
  1502   002332  6EF6               	movwf	tblptrl,c
  1503   002334                     	if	0	;There is only one active tblptr byte
  1504   002334                     	endif
  1505   002334                     	if	0	;There are less than 3 active tblptr bytes
  1506   002334                     	endif
  1507   002334  EE20  F001         	lfsr	2,uartStart@startMarker
  1508   002338  0E08               	movlw	8
  1509   00233A                     u2160:
  1510   00233A  0009               	tblrd		*+
  1511   00233C  CFF5 FFDE          	movff	tablat,postinc2
  1512   002340  06E8               	decf	wreg,f,c
  1513   002342  E2FB               	bc	u2160
  1514   002344                     
  1515                           ;main.c: 140:     for (int i = 0; startMarker[i] != '\0'; i++) {
  1516   002344  6A0B               	clrf	(uartStart@i+1)^0,c
  1517   002346  0E00               	movlw	0
  1518   002348  6E0A               	movwf	uartStart@i^0,c
  1519   00234A  EFB6  F011         	goto	l2341
  1520   00234E                     l86:
  1521   00234E  A89E               	btfss	158,4,c	;volatile
  1522   002350  EFAC  F011         	goto	u2171
  1523   002354  EFAE  F011         	goto	u2170
  1524   002358                     u2171:
  1525   002358  EFA7  F011         	goto	l86
  1526   00235C                     u2170:
  1527   00235C                     
  1528                           ;main.c: 142:         TXREG1 = startMarker[i];
  1529   00235C  500A               	movf	uartStart@i^0,w,c
  1530   00235E  0F01               	addlw	low uartStart@startMarker
  1531   002360  6ED9               	movwf	fsr2l,c
  1532   002362  6ADA               	clrf	fsr2h,c
  1533   002364  50DF               	movf	indf2,w,c
  1534   002366  6EAD               	movwf	173,c	;volatile
  1535   002368                     
  1536                           ;main.c: 143:     }
  1537   002368  4A0A               	infsnz	uartStart@i^0,f,c
  1538   00236A  2A0B               	incf	(uartStart@i+1)^0,f,c
  1539   00236C                     l2341:
  1540   00236C  500A               	movf	uartStart@i^0,w,c
  1541   00236E  0F01               	addlw	low uartStart@startMarker
  1542   002370  6ED9               	movwf	fsr2l,c
  1543   002372  6ADA               	clrf	fsr2h,c
  1544   002374  50DF               	movf	indf2,w,c
  1545   002376  A4D8               	btfss	status,2,c
  1546   002378  EFC0  F011         	goto	u2181
  1547   00237C  EFC2  F011         	goto	u2180
  1548   002380                     u2181:
  1549   002380  EFA7  F011         	goto	l86
  1550   002384                     u2180:
  1551   002384  0012               	return		;funcret
  1552   002386                     __end_of_uartStart:
  1553                           	callstack 0
  1554                           
  1555 ;; *************** function _uartEnd *****************
  1556 ;; Defined at:
  1557 ;;		line 146 in file "main.c"
  1558 ;; Parameters:    Size  Location     Type
  1559 ;;		None
  1560 ;; Auto vars:     Size  Location     Type
  1561 ;;  i               2    7[COMRAM] int 
  1562 ;;  endMarker       7    0[COMRAM] const unsigned char [7]
  1563 ;; Return value:  Size  Location     Type
  1564 ;;                  1    wreg      void 
  1565 ;; Registers used:
  1566 ;;		wreg, fsr2l, fsr2h, status,2, status,0, tblptrl, tblptrh, tblptru
  1567 ;; Tracked objects:
  1568 ;;		On entry : 0/0
  1569 ;;		On exit  : 0/0
  1570 ;;		Unchanged: 0/0
  1571 ;; Data sizes:     COMRAM   BANK0   BANK1   BANK2   BANK3   BANK4   BANK5   BANK6   BANK7   BANK8   BANK9  BANK10  BANK1
      +1  BANK12  BANK13  BANK14  BANK15
  1572 ;;      Params:         0       0       0       0       0       0       0       0       0       0       0       0       
      +0       0       0       0       0
  1573 ;;      Locals:         9       0       0       0       0       0       0       0       0       0       0       0       
      +0       0       0       0       0
  1574 ;;      Temps:          0       0       0       0       0       0       0       0       0       0       0       0       
      +0       0       0       0       0
  1575 ;;      Totals:         9       0       0       0       0       0       0       0       0       0       0       0       
      +0       0       0       0       0
  1576 ;;Total ram usage:        9 bytes
  1577 ;; Hardware stack levels used: 1
  1578 ;; This function calls:
  1579 ;;		Nothing
  1580 ;; This function is called by:
  1581 ;;		_main
  1582 ;; This function uses a non-reentrant model
  1583 ;;
  1584                           
  1585                           	psect	text4
  1586   002386                     __ptext4:
  1587                           	callstack 0
  1588   002386                     _uartEnd:
  1589                           	callstack 30
  1590   002386                     
  1591                           ;main.c: 147:     const char endMarker[] = "#END\r\n";
  1592   002386  0E0A               	movlw	low uartEnd@F6355
  1593   002388  6EF6               	movwf	tblptrl,c
  1594   00238A                     	if	0	;There is only one active tblptr byte
  1595   00238A                     	endif
  1596   00238A                     	if	0	;There are less than 3 active tblptr bytes
  1597   00238A                     	endif
  1598   00238A  EE20  F001         	lfsr	2,uartEnd@endMarker
  1599   00238E  0E06               	movlw	6
  1600   002390                     u2190:
  1601   002390  0009               	tblrd		*+
  1602   002392  CFF5 FFDE          	movff	tablat,postinc2
  1603   002396  06E8               	decf	wreg,f,c
  1604   002398  E2FB               	bc	u2190
  1605   00239A                     
  1606                           ;main.c: 148:     for (int i = 0; endMarker[i] != '\0'; i++) {
  1607   00239A  6A09               	clrf	(uartEnd@i+1)^0,c
  1608   00239C  0E00               	movlw	0
  1609   00239E  6E08               	movwf	uartEnd@i^0,c
  1610   0023A0  EFE1  F011         	goto	l2351
  1611   0023A4                     l97:
  1612   0023A4  A89E               	btfss	158,4,c	;volatile
  1613   0023A6  EFD7  F011         	goto	u2201
  1614   0023AA  EFD9  F011         	goto	u2200
  1615   0023AE                     u2201:
  1616   0023AE  EFD2  F011         	goto	l97
  1617   0023B2                     u2200:
  1618   0023B2                     
  1619                           ;main.c: 150:         TXREG1 = endMarker[i];
  1620   0023B2  5008               	movf	uartEnd@i^0,w,c
  1621   0023B4  0F01               	addlw	low uartEnd@endMarker
  1622   0023B6  6ED9               	movwf	fsr2l,c
  1623   0023B8  6ADA               	clrf	fsr2h,c
  1624   0023BA  50DF               	movf	indf2,w,c
  1625   0023BC  6EAD               	movwf	173,c	;volatile
  1626   0023BE                     
  1627                           ;main.c: 151:     }
  1628   0023BE  4A08               	infsnz	uartEnd@i^0,f,c
  1629   0023C0  2A09               	incf	(uartEnd@i+1)^0,f,c
  1630   0023C2                     l2351:
  1631   0023C2  5008               	movf	uartEnd@i^0,w,c
  1632   0023C4  0F01               	addlw	low uartEnd@endMarker
  1633   0023C6  6ED9               	movwf	fsr2l,c
  1634   0023C8  6ADA               	clrf	fsr2h,c
  1635   0023CA  50DF               	movf	indf2,w,c
  1636   0023CC  A4D8               	btfss	status,2,c
  1637   0023CE  EFEB  F011         	goto	u2211
  1638   0023D2  EFED  F011         	goto	u2210
  1639   0023D6                     u2211:
  1640   0023D6  EFD2  F011         	goto	l97
  1641   0023DA                     u2210:
  1642   0023DA  0012               	return		;funcret
  1643   0023DC                     __end_of_uartEnd:
  1644                           	callstack 0
  1645                           
  1646 ;; *************** function _dectohex *****************
  1647 ;; Defined at:
  1648 ;;		line 173 in file "main.c"
  1649 ;; Parameters:    Size  Location     Type
  1650 ;;  adcvalue        2   41[COMRAM] unsigned short 
  1651 ;;  Anum            1   43[COMRAM] PTR unsigned char 
  1652 ;;		 -> main@label(7), 
  1653 ;; Auto vars:     Size  Location     Type
  1654 ;;  numberValue    20   44[COMRAM] unsigned char [20]
  1655 ;;  hexvalue        6    0        unsigned char [6]
  1656 ;;  current         4   68[COMRAM] float 
  1657 ;;  V               4   64[COMRAM] float 
  1658 ;;  number          2   74[COMRAM] unsigned short 
  1659 ;;  currentInt      2   72[COMRAM] unsigned short 
  1660 ;; Return value:  Size  Location     Type
  1661 ;;                  1    wreg      void 
  1662 ;; Registers used:
  1663 ;;		wreg, fsr1l, fsr1h, fsr2l, fsr2h, status,2, status,0, tblptrl, tblptrh, tblptru, prodl, prodh, cstack
  1664 ;; Tracked objects:
  1665 ;;		On entry : 0/0
  1666 ;;		On exit  : 0/0
  1667 ;;		Unchanged: 0/0
  1668 ;; Data sizes:     COMRAM   BANK0   BANK1   BANK2   BANK3   BANK4   BANK5   BANK6   BANK7   BANK8   BANK9  BANK10  BANK1
      +1  BANK12  BANK13  BANK14  BANK15
  1669 ;;      Params:         3       0       0       0       0       0       0       0       0       0       0       0       
      +0       0       0       0       0
  1670 ;;      Locals:        32       0       0       0       0       0       0       0       0       0       0       0       
      +0       0       0       0       0
  1671 ;;      Temps:          0       0       0       0       0       0       0       0       0       0       0       0       
      +0       0       0       0       0
  1672 ;;      Totals:        35       0       0       0       0       0       0       0       0       0       0       0       
      +0       0       0       0       0
  1673 ;;Total ram usage:       35 bytes
  1674 ;; Hardware stack levels used: 1
  1675 ;; Hardware stack levels required when called: 5
  1676 ;; This function calls:
  1677 ;;		___fldiv
  1678 ;;		___flmul
  1679 ;;		___fltol
  1680 ;;		___xxtofl
  1681 ;;		_sprintf
  1682 ;;		_uarttx
  1683 ;; This function is called by:
  1684 ;;		_main
  1685 ;; This function uses a non-reentrant model
  1686 ;;
  1687                           
  1688                           	psect	text5
  1689   001E16                     __ptext5:
  1690                           	callstack 0
  1691   001E16                     _dectohex:
  1692                           	callstack 25
  1693   001E16                     
  1694                           ;main.c: 173: void dectohex(uint16_t adcvalue, char Anum[]);main.c: 174: {;main.c: 175: 
      +                              char hexvalue[6];;main.c: 176:     uint16_t currentInt;;main.c: 178:     float V = (
      +                          float)adcvalue / 1000;
  1695   001E16  C02A  F001         	movff	dectohex@adcvalue,___xxtofl@val
  1696   001E1A  C02B  F002         	movff	dectohex@adcvalue+1,___xxtofl@val+1
  1697   001E1E  6A03               	clrf	(___xxtofl@val+2)^0,c
  1698   001E20  6A04               	clrf	(___xxtofl@val+3)^0,c
  1699   001E22  0E00               	movlw	0
  1700   001E24  ECDD  F00C         	call	___xxtofl
  1701   001E28  C001  F00F         	movff	?___xxtofl,___fldiv@b
  1702   001E2C  C002  F010         	movff	?___xxtofl+1,___fldiv@b+1
  1703   001E30  C003  F011         	movff	?___xxtofl+2,___fldiv@b+2
  1704   001E34  C004  F012         	movff	?___xxtofl+3,___fldiv@b+3
  1705   001E38  0E00               	movlw	0
  1706   001E3A  6E13               	movwf	___fldiv@a^0,c
  1707   001E3C  0E00               	movlw	0
  1708   001E3E  6E14               	movwf	(___fldiv@a+1)^0,c
  1709   001E40  0E7A               	movlw	122
  1710   001E42  6E15               	movwf	(___fldiv@a+2)^0,c
  1711   001E44  0E44               	movlw	68
  1712   001E46  6E16               	movwf	(___fldiv@a+3)^0,c
  1713   001E48  EC21  F00A         	call	___fldiv	;wreg free
  1714   001E4C  C00F  F041         	movff	?___fldiv,dectohex@V
  1715   001E50  C010  F042         	movff	?___fldiv+1,dectohex@V+1
  1716   001E54  C011  F043         	movff	?___fldiv+2,dectohex@V+2
  1717   001E58  C012  F044         	movff	?___fldiv+3,dectohex@V+3
  1718                           
  1719                           ;main.c: 181:     float current = V / R;
  1720   001E5C  C041  F00F         	movff	dectohex@V,___fldiv@b
  1721   001E60  C042  F010         	movff	dectohex@V+1,___fldiv@b+1
  1722   001E64  C043  F011         	movff	dectohex@V+2,___fldiv@b+2
  1723   001E68  C044  F012         	movff	dectohex@V+3,___fldiv@b+3
  1724   001E6C  0ECD               	movlw	205
  1725   001E6E  6E13               	movwf	___fldiv@a^0,c
  1726   001E70  0ECC               	movlw	204
  1727   001E72  6E14               	movwf	(___fldiv@a+1)^0,c
  1728   001E74  0ECC               	movlw	204
  1729   001E76  6E15               	movwf	(___fldiv@a+2)^0,c
  1730   001E78  0E3D               	movlw	61
  1731   001E7A  6E16               	movwf	(___fldiv@a+3)^0,c
  1732   001E7C  EC21  F00A         	call	___fldiv	;wreg free
  1733   001E80  C00F  F045         	movff	?___fldiv,dectohex@current
  1734   001E84  C010  F046         	movff	?___fldiv+1,dectohex@current+1
  1735   001E88  C011  F047         	movff	?___fldiv+2,dectohex@current+2
  1736   001E8C  C012  F048         	movff	?___fldiv+3,dectohex@current+3
  1737   001E90                     
  1738                           ;main.c: 184:     currentInt = (uint16_t)(current * 1000.0f);
  1739   001E90  0E00               	movlw	0
  1740   001E92  6E05               	movwf	___flmul@a^0,c
  1741   001E94  0E00               	movlw	0
  1742   001E96  6E06               	movwf	(___flmul@a+1)^0,c
  1743   001E98  0E7A               	movlw	122
  1744   001E9A  6E07               	movwf	(___flmul@a+2)^0,c
  1745   001E9C  0E44               	movlw	68
  1746   001E9E  6E08               	movwf	(___flmul@a+3)^0,c
  1747   001EA0  C045  F001         	movff	dectohex@current,___flmul@b
  1748   001EA4  C046  F002         	movff	dectohex@current+1,___flmul@b+1
  1749   001EA8  C047  F003         	movff	dectohex@current+2,___flmul@b+2
  1750   001EAC  C048  F004         	movff	dectohex@current+3,___flmul@b+3
  1751   001EB0  EC0E  F008         	call	___flmul	;wreg free
  1752   001EB4  C001  F01A         	movff	?___flmul,___fltol@f1
  1753   001EB8  C002  F01B         	movff	?___flmul+1,___fltol@f1+1
  1754   001EBC  C003  F01C         	movff	?___flmul+2,___fltol@f1+2
  1755   001EC0  C004  F01D         	movff	?___flmul+3,___fltol@f1+3
  1756   001EC4  EC88  F00E         	call	___fltol	;wreg free
  1757   001EC8  C01A  F049         	movff	?___fltol,dectohex@currentInt
  1758   001ECC  C01B  F04A         	movff	?___fltol+1,dectohex@currentInt+1
  1759   001ED0                     
  1760                           ;main.c: 186:     uint16_t number = currentInt;
  1761   001ED0  C049  F04B         	movff	dectohex@currentInt,dectohex@number
  1762   001ED4  C04A  F04C         	movff	dectohex@currentInt+1,dectohex@number+1
  1763   001ED8                     
  1764                           ;main.c: 187:     char numberValue[20];;main.c: 188:     sprintf(numberValue, "%d", numb
      +                          er);
  1765   001ED8  0E2D               	movlw	low dectohex@numberValue
  1766   001EDA  6E1A               	movwf	sprintf@s^0,c
  1767   001EDC  0E18               	movlw	low STR_1
  1768   001EDE  6E1B               	movwf	sprintf@fmt^0,c
  1769   001EE0  C04B  F01C         	movff	dectohex@number,?_sprintf+2
  1770   001EE4  C04C  F01D         	movff	dectohex@number+1,?_sprintf+3
  1771   001EE8  EC46  F012         	call	_sprintf	;wreg free
  1772   001EEC                     
  1773                           ;main.c: 191:     uarttx(numberValue, Anum);
  1774   001EEC  0E2D               	movlw	low dectohex@numberValue
  1775   001EEE  6E01               	movwf	uarttx@message^0,c
  1776   001EF0  C02C  F002         	movff	dectohex@Anum,uarttx@Anum
  1777   001EF4  EC7D  F00F         	call	_uarttx	;wreg free
  1778   001EF8  0012               	return		;funcret
  1779   001EFA                     __end_of_dectohex:
  1780                           	callstack 0
  1781                           
  1782 ;; *************** function _uarttx *****************
  1783 ;; Defined at:
  1784 ;;		line 155 in file "main.c"
  1785 ;; Parameters:    Size  Location     Type
  1786 ;;  message         1    0[COMRAM] PTR unsigned char 
  1787 ;;		 -> dectohex@numberValue(20), 
  1788 ;;  Anum            1    1[COMRAM] PTR unsigned char 
  1789 ;;		 -> main@label(7), 
  1790 ;; Auto vars:     Size  Location     Type
  1791 ;;  i               2    9[COMRAM] int 
  1792 ;;  i               2    7[COMRAM] int 
  1793 ;;  i               2    5[COMRAM] int 
  1794 ;;  newline         3    2[COMRAM] const unsigned char [3]
  1795 ;; Return value:  Size  Location     Type
  1796 ;;                  1    wreg      void 
  1797 ;; Registers used:
  1798 ;;		wreg, fsr2l, fsr2h, status,2, status,0, tblptrl, tblptrh, tblptru
  1799 ;; Tracked objects:
  1800 ;;		On entry : 0/0
  1801 ;;		On exit  : 0/0
  1802 ;;		Unchanged: 0/0
  1803 ;; Data sizes:     COMRAM   BANK0   BANK1   BANK2   BANK3   BANK4   BANK5   BANK6   BANK7   BANK8   BANK9  BANK10  BANK1
      +1  BANK12  BANK13  BANK14  BANK15
  1804 ;;      Params:         2       0       0       0       0       0       0       0       0       0       0       0       
      +0       0       0       0       0
  1805 ;;      Locals:         9       0       0       0       0       0       0       0       0       0       0       0       
      +0       0       0       0       0
  1806 ;;      Temps:          0       0       0       0       0       0       0       0       0       0       0       0       
      +0       0       0       0       0
  1807 ;;      Totals:        11       0       0       0       0       0       0       0       0       0       0       0       
      +0       0       0       0       0
  1808 ;;Total ram usage:       11 bytes
  1809 ;; Hardware stack levels used: 1
  1810 ;; This function calls:
  1811 ;;		Nothing
  1812 ;; This function is called by:
  1813 ;;		_dectohex
  1814 ;; This function uses a non-reentrant model
  1815 ;;
  1816                           
  1817                           	psect	text6
  1818   001EFA                     __ptext6:
  1819                           	callstack 0
  1820   001EFA                     _uarttx:
  1821                           	callstack 29
  1822   001EFA                     
  1823                           ;main.c: 156:     const char newline[] = "\r\n";
  1824   001EFA  0E15               	movlw	low uarttx@F6361
  1825   001EFC  6EF6               	movwf	tblptrl,c
  1826   001EFE                     	if	0	;There is only one active tblptr byte
  1827   001EFE                     	endif
  1828   001EFE                     	if	0	;There are less than 3 active tblptr bytes
  1829   001EFE                     	endif
  1830   001EFE  0009               	tblrd		*+
  1831   001F00  CFF5 F003          	movff	tablat,uarttx@newline
  1832   001F04  0009               	tblrd		*+
  1833   001F06  CFF5 F004          	movff	tablat,uarttx@newline+1
  1834   001F0A  000A               	tblrd		*-
  1835   001F0C  CFF5 F005          	movff	tablat,uarttx@newline+2
  1836   001F10                     
  1837                           ;main.c: 158: for (int i = 0; Anum[i] != '\0'; i++) {
  1838   001F10  6A07               	clrf	(uarttx@i+1)^0,c
  1839   001F12  0E00               	movlw	0
  1840   001F14  6E06               	movwf	uarttx@i^0,c
  1841   001F16  EF9C  F00F         	goto	l1899
  1842   001F1A                     l108:
  1843   001F1A  A89E               	btfss	158,4,c	;volatile
  1844   001F1C  EF92  F00F         	goto	u1441
  1845   001F20  EF94  F00F         	goto	u1440
  1846   001F24                     u1441:
  1847   001F24  EF8D  F00F         	goto	l108
  1848   001F28                     u1440:
  1849   001F28                     
  1850                           ;main.c: 160:         TXREG1 = Anum[i];
  1851   001F28  5002               	movf	uarttx@Anum^0,w,c
  1852   001F2A  2406               	addwf	uarttx@i^0,w,c
  1853   001F2C  6ED9               	movwf	fsr2l,c
  1854   001F2E  6ADA               	clrf	fsr2h,c
  1855   001F30  50DF               	movf	indf2,w,c
  1856   001F32  6EAD               	movwf	173,c	;volatile
  1857   001F34                     
  1858                           ;main.c: 161:     }
  1859   001F34  4A06               	infsnz	uarttx@i^0,f,c
  1860   001F36  2A07               	incf	(uarttx@i+1)^0,f,c
  1861   001F38                     l1899:
  1862   001F38  5002               	movf	uarttx@Anum^0,w,c
  1863   001F3A  2406               	addwf	uarttx@i^0,w,c
  1864   001F3C  6ED9               	movwf	fsr2l,c
  1865   001F3E  6ADA               	clrf	fsr2h,c
  1866   001F40  50DF               	movf	indf2,w,c
  1867   001F42  A4D8               	btfss	status,2,c
  1868   001F44  EFA6  F00F         	goto	u1451
  1869   001F48  EFA8  F00F         	goto	u1450
  1870   001F4C                     u1451:
  1871   001F4C  EF8D  F00F         	goto	l108
  1872   001F50                     u1450:
  1873   001F50                     
  1874                           ;main.c: 162: for (int i = 0; message[i] != '\0'; i++) {
  1875   001F50  6A09               	clrf	(uarttx@i_782+1)^0,c
  1876   001F52  0E00               	movlw	0
  1877   001F54  6E08               	movwf	uarttx@i_782^0,c
  1878   001F56  EFBC  F00F         	goto	l1907
  1879   001F5A                     l114:
  1880   001F5A  A89E               	btfss	158,4,c	;volatile
  1881   001F5C  EFB2  F00F         	goto	u1461
  1882   001F60  EFB4  F00F         	goto	u1460
  1883   001F64                     u1461:
  1884   001F64  EFAD  F00F         	goto	l114
  1885   001F68                     u1460:
  1886   001F68                     
  1887                           ;main.c: 164:         TXREG1 = message[i];
  1888   001F68  5001               	movf	uarttx@message^0,w,c
  1889   001F6A  2408               	addwf	uarttx@i_782^0,w,c
  1890   001F6C  6ED9               	movwf	fsr2l,c
  1891   001F6E  6ADA               	clrf	fsr2h,c
  1892   001F70  50DF               	movf	indf2,w,c
  1893   001F72  6EAD               	movwf	173,c	;volatile
  1894   001F74                     
  1895                           ;main.c: 165:     }
  1896   001F74  4A08               	infsnz	uarttx@i_782^0,f,c
  1897   001F76  2A09               	incf	(uarttx@i_782+1)^0,f,c
  1898   001F78                     l1907:
  1899   001F78  5001               	movf	uarttx@message^0,w,c
  1900   001F7A  2408               	addwf	uarttx@i_782^0,w,c
  1901   001F7C  6ED9               	movwf	fsr2l,c
  1902   001F7E  6ADA               	clrf	fsr2h,c
  1903   001F80  50DF               	movf	indf2,w,c
  1904   001F82  A4D8               	btfss	status,2,c
  1905   001F84  EFC6  F00F         	goto	u1471
  1906   001F88  EFC8  F00F         	goto	u1470
  1907   001F8C                     u1471:
  1908   001F8C  EFAD  F00F         	goto	l114
  1909   001F90                     u1470:
  1910   001F90                     
  1911                           ;main.c: 166: for (int i = 0; newline[i] != '\0'; i++) {
  1912   001F90  6A0B               	clrf	(uarttx@i_783+1)^0,c
  1913   001F92  0E00               	movlw	0
  1914   001F94  6E0A               	movwf	uarttx@i_783^0,c
  1915   001F96  EFDC  F00F         	goto	l1915
  1916   001F9A                     l120:
  1917   001F9A  A89E               	btfss	158,4,c	;volatile
  1918   001F9C  EFD2  F00F         	goto	u1481
  1919   001FA0  EFD4  F00F         	goto	u1480
  1920   001FA4                     u1481:
  1921   001FA4  EFCD  F00F         	goto	l120
  1922   001FA8                     u1480:
  1923   001FA8                     
  1924                           ;main.c: 168:         TXREG1 = newline[i];
  1925   001FA8  500A               	movf	uarttx@i_783^0,w,c
  1926   001FAA  0F03               	addlw	low uarttx@newline
  1927   001FAC  6ED9               	movwf	fsr2l,c
  1928   001FAE  6ADA               	clrf	fsr2h,c
  1929   001FB0  50DF               	movf	indf2,w,c
  1930   001FB2  6EAD               	movwf	173,c	;volatile
  1931   001FB4                     
  1932                           ;main.c: 169:     }
  1933   001FB4  4A0A               	infsnz	uarttx@i_783^0,f,c
  1934   001FB6  2A0B               	incf	(uarttx@i_783+1)^0,f,c
  1935   001FB8                     l1915:
  1936   001FB8  500A               	movf	uarttx@i_783^0,w,c
  1937   001FBA  0F03               	addlw	low uarttx@newline
  1938   001FBC  6ED9               	movwf	fsr2l,c
  1939   001FBE  6ADA               	clrf	fsr2h,c
  1940   001FC0  50DF               	movf	indf2,w,c
  1941   001FC2  A4D8               	btfss	status,2,c
  1942   001FC4  EFE6  F00F         	goto	u1491
  1943   001FC8  EFE8  F00F         	goto	u1490
  1944   001FCC                     u1491:
  1945   001FCC  EFCD  F00F         	goto	l120
  1946   001FD0                     u1490:
  1947   001FD0  0012               	return		;funcret
  1948   001FD2                     __end_of_uarttx:
  1949                           	callstack 0
  1950                           
  1951 ;; *************** function _sprintf *****************
  1952 ;; Defined at:
  1953 ;;		line 9 in file "C:\Program Files\Microchip\xc8\v3.10\pic\sources\c99\common\nf_sprintf.c"
  1954 ;; Parameters:    Size  Location     Type
  1955 ;;  s               1   25[COMRAM] PTR unsigned char 
  1956 ;;		 -> dectohex@numberValue(20), 
  1957 ;;  fmt             1   26[COMRAM] PTR const unsigned char 
  1958 ;;		 -> STR_1(3), 
  1959 ;; Auto vars:     Size  Location     Type
  1960 ;;  f              11   30[COMRAM] struct _IO_FILE
  1961 ;;  ret             2    0        int 
  1962 ;;  ap              1   29[COMRAM] PTR void [1]
  1963 ;;		 -> ?_sprintf(2), 
  1964 ;; Return value:  Size  Location     Type
  1965 ;;                  2   25[COMRAM] int 
  1966 ;; Registers used:
  1967 ;;		wreg, fsr1l, fsr1h, fsr2l, fsr2h, status,2, status,0, tblptrl, tblptrh, tblptru, cstack
  1968 ;; Tracked objects:
  1969 ;;		On entry : 0/0
  1970 ;;		On exit  : 0/0
  1971 ;;		Unchanged: 0/0
  1972 ;; Data sizes:     COMRAM   BANK0   BANK1   BANK2   BANK3   BANK4   BANK5   BANK6   BANK7   BANK8   BANK9  BANK10  BANK1
      +1  BANK12  BANK13  BANK14  BANK15
  1973 ;;      Params:         4       0       0       0       0       0       0       0       0       0       0       0       
      +0       0       0       0       0
  1974 ;;      Locals:        12       0       0       0       0       0       0       0       0       0       0       0       
      +0       0       0       0       0
  1975 ;;      Temps:          0       0       0       0       0       0       0       0       0       0       0       0       
      +0       0       0       0       0
  1976 ;;      Totals:        16       0       0       0       0       0       0       0       0       0       0       0       
      +0       0       0       0       0
  1977 ;;Total ram usage:       16 bytes
  1978 ;; Hardware stack levels used: 1
  1979 ;; Hardware stack levels required when called: 4
  1980 ;; This function calls:
  1981 ;;		_vfprintf
  1982 ;; This function is called by:
  1983 ;;		_dectohex
  1984 ;; This function uses a non-reentrant model
  1985 ;;
  1986                           
  1987                           	psect	text7
  1988   00248C                     __ptext7:
  1989                           	callstack 0
  1990   00248C                     _sprintf:
  1991                           	callstack 25
  1992   00248C  0E1C               	movlw	low (?_sprintf+2)
  1993   00248E  6E1E               	movwf	sprintf@ap^0,c
  1994   002490  C01A  F01F         	movff	sprintf@s,sprintf@f
  1995   002494  6A22               	clrf	(sprintf@f+3)^0,c
  1996   002496  0E00               	movlw	0
  1997   002498  6E21               	movwf	(sprintf@f+2)^0,c
  1998   00249A  6A29               	clrf	(sprintf@f+10)^0,c
  1999   00249C  0E00               	movlw	0
  2000   00249E  6E28               	movwf	(sprintf@f+9)^0,c
  2001   0024A0  0E1F               	movlw	low sprintf@f
  2002   0024A2  6E16               	movwf	vfprintf@fp^0,c
  2003   0024A4  C01B  F017         	movff	sprintf@fmt,vfprintf@fmt
  2004   0024A8  0E1E               	movlw	low sprintf@ap
  2005   0024AA  6E18               	movwf	vfprintf@ap^0,c
  2006   0024AC  EC10  F012         	call	_vfprintf	;wreg free
  2007   0024B0  501A               	movf	sprintf@s^0,w,c
  2008   0024B2  2421               	addwf	(sprintf@f+2)^0,w,c
  2009   0024B4  6ED9               	movwf	fsr2l,c
  2010   0024B6  6ADA               	clrf	fsr2h,c
  2011   0024B8  6ADF               	clrf	indf2,c
  2012   0024BA  0012               	return		;funcret
  2013   0024BC                     __end_of_sprintf:
  2014                           	callstack 0
  2015                           
  2016 ;; *************** function _vfprintf *****************
  2017 ;; Defined at:
  2018 ;;		line 1817 in file "C:\Program Files\Microchip\xc8\v3.10\pic\sources\c99\common\doprnt.c"
  2019 ;; Parameters:    Size  Location     Type
  2020 ;;  fp              1   21[COMRAM] PTR struct _IO_FILE
  2021 ;;		 -> sprintf@f(11), 
  2022 ;;  fmt             1   22[COMRAM] PTR const unsigned char 
  2023 ;;		 -> STR_1(3), 
  2024 ;;  ap              1   23[COMRAM] PTR PTR void 
  2025 ;;		 -> sprintf@ap(1), 
  2026 ;; Auto vars:     Size  Location     Type
  2027 ;;  cfmt            1   24[COMRAM] PTR unsigned char 
  2028 ;;		 -> STR_1(3), 
  2029 ;; Return value:  Size  Location     Type
  2030 ;;                  2   21[COMRAM] int 
  2031 ;; Registers used:
  2032 ;;		wreg, fsr1l, fsr1h, fsr2l, fsr2h, status,2, status,0, tblptrl, tblptrh, tblptru, cstack
  2033 ;; Tracked objects:
  2034 ;;		On entry : 0/0
  2035 ;;		On exit  : 0/0
  2036 ;;		Unchanged: 0/0
  2037 ;; Data sizes:     COMRAM   BANK0   BANK1   BANK2   BANK3   BANK4   BANK5   BANK6   BANK7   BANK8   BANK9  BANK10  BANK1
      +1  BANK12  BANK13  BANK14  BANK15
  2038 ;;      Params:         3       0       0       0       0       0       0       0       0       0       0       0       
      +0       0       0       0       0
  2039 ;;      Locals:         1       0       0       0       0       0       0       0       0       0       0       0       
      +0       0       0       0       0
  2040 ;;      Temps:          0       0       0       0       0       0       0       0       0       0       0       0       
      +0       0       0       0       0
  2041 ;;      Totals:         4       0       0       0       0       0       0       0       0       0       0       0       
      +0       0       0       0       0
  2042 ;;Total ram usage:        4 bytes
  2043 ;; Hardware stack levels used: 1
  2044 ;; Hardware stack levels required when called: 3
  2045 ;; This function calls:
  2046 ;;		_vfpfcnvrt
  2047 ;; This function is called by:
  2048 ;;		_sprintf
  2049 ;; This function uses a non-reentrant model
  2050 ;;
  2051                           
  2052                           	psect	text8
  2053   002420                     __ptext8:
  2054                           	callstack 0
  2055   002420                     _vfprintf:
  2056                           	callstack 25
  2057   002420                     
  2058                           ;C:\Program Files\Microchip\xc8\v3.10\pic\sources\c99\common\doprnt.c: 1817: int vfprint
      +                          f(FILE *fp, const char *fmt, va_list ap);C:\Program Files\Microchip\xc8\v3.10\pic\source
      +                          s\c99\common\doprnt.c: 1818: {;C:\Program Files\Microchip\xc8\v3.10\pic\sources\c99\comm
      +                          on\doprnt.c: 1820:     char *cfmt;;C:\Program Files\Microchip\xc8\v3.10\pic\sources\c99\
      +                          common\doprnt.c: 1822:     cfmt = (char *)fmt;
  2059   002420  C017  F019         	movff	vfprintf@fmt,vfprintf@cfmt
  2060                           
  2061                           ;C:\Program Files\Microchip\xc8\v3.10\pic\sources\c99\common\doprnt.c: 1826:     while (
      +                          *cfmt) {
  2062   002424  EF1C  F012         	goto	l1885
  2063   002428                     l1883:
  2064                           
  2065                           ;C:\Program Files\Microchip\xc8\v3.10\pic\sources\c99\common\doprnt.c: 1830:    vfpfcnvr
      +                          t(fp, &cfmt, ap);
  2066   002428  C016  F00B         	movff	vfprintf@fp,vfpfcnvrt@fp
  2067   00242C  0E19               	movlw	low vfprintf@cfmt
  2068   00242E  6E0C               	movwf	vfpfcnvrt@fmt^0,c
  2069   002430  C018  F00D         	movff	vfprintf@ap,vfpfcnvrt@ap
  2070   002434  ECB7  F00D         	call	_vfpfcnvrt	;wreg free
  2071   002438                     l1885:
  2072                           
  2073                           ;C:\Program Files\Microchip\xc8\v3.10\pic\sources\c99\common\doprnt.c: 1826:     while (
      +                          *cfmt) {
  2074   002438  C019  FFF6         	movff	vfprintf@cfmt,tblptrl
  2075   00243C                     	if	0	;There is only one active tblptr byte
  2076   00243C                     	endif
  2077   00243C                     	if	0	;tblptru may be non-zero
  2078   00243C                     	endif
  2079   00243C                     	if	0	;tblptru may be non-zero
  2080   00243C                     	endif
  2081   00243C  0008               	tblrd		*
  2082   00243E  50F5               	movf	tablat,w,c
  2083   002440  0900               	iorlw	0
  2084   002442  A4D8               	btfss	status,2,c
  2085   002444  EF26  F012         	goto	u1431
  2086   002448  EF28  F012         	goto	u1430
  2087   00244C                     u1431:
  2088   00244C  EF14  F012         	goto	l1883
  2089   002450                     u1430:
  2090   002450                     
  2091                           ;C:\Program Files\Microchip\xc8\v3.10\pic\sources\c99\common\doprnt.c: 1835:  return 0;
  2092   002450  6A17               	clrf	(?_vfprintf+1)^0,c
  2093   002452  0E00               	movlw	0
  2094   002454  6E16               	movwf	?_vfprintf^0,c
  2095   002456  0012               	return		;funcret
  2096   002458                     __end_of_vfprintf:
  2097                           	callstack 0
  2098                           
  2099 ;; *************** function _vfpfcnvrt *****************
  2100 ;; Defined at:
  2101 ;;		line 1177 in file "C:\Program Files\Microchip\xc8\v3.10\pic\sources\c99\common\doprnt.c"
  2102 ;; Parameters:    Size  Location     Type
  2103 ;;  fp              1   10[COMRAM] PTR struct _IO_FILE
  2104 ;;		 -> sprintf@f(11), 
  2105 ;;  fmt             1   11[COMRAM] PTR PTR unsigned char 
  2106 ;;		 -> vfprintf@cfmt(1), 
  2107 ;;  ap              1   12[COMRAM] PTR PTR void 
  2108 ;;		 -> sprintf@ap(1), 
  2109 ;; Auto vars:     Size  Location     Type
  2110 ;;  convarg         4   16[COMRAM] struct .
  2111 ;;  c               1   20[COMRAM] unsigned char 
  2112 ;;  cp              1   15[COMRAM] PTR unsigned char 
  2113 ;;		 -> STR_1(3), 
  2114 ;;  done            1   14[COMRAM] _Bool 
  2115 ;; Return value:  Size  Location     Type
  2116 ;;                  1    wreg      void 
  2117 ;; Registers used:
  2118 ;;		wreg, fsr1l, fsr1h, fsr2l, fsr2h, status,2, status,0, tblptrl, tblptrh, tblptru, cstack
  2119 ;; Tracked objects:
  2120 ;;		On entry : 0/0
  2121 ;;		On exit  : 0/0
  2122 ;;		Unchanged: 0/0
  2123 ;; Data sizes:     COMRAM   BANK0   BANK1   BANK2   BANK3   BANK4   BANK5   BANK6   BANK7   BANK8   BANK9  BANK10  BANK1
      +1  BANK12  BANK13  BANK14  BANK15
  2124 ;;      Params:         3       0       0       0       0       0       0       0       0       0       0       0       
      +0       0       0       0       0
  2125 ;;      Locals:         7       0       0       0       0       0       0       0       0       0       0       0       
      +0       0       0       0       0
  2126 ;;      Temps:          1       0       0       0       0       0       0       0       0       0       0       0       
      +0       0       0       0       0
  2127 ;;      Totals:        11       0       0       0       0       0       0       0       0       0       0       0       
      +0       0       0       0       0
  2128 ;;Total ram usage:       11 bytes
  2129 ;; Hardware stack levels used: 1
  2130 ;; Hardware stack levels required when called: 2
  2131 ;; This function calls:
  2132 ;;		___awdiv
  2133 ;;		___awmod
  2134 ;;		_abs
  2135 ;;		_fputc
  2136 ;; This function is called by:
  2137 ;;		_vfprintf
  2138 ;; This function uses a non-reentrant model
  2139 ;;
  2140                           
  2141                           	psect	text9
  2142   001B6E                     __ptext9:
  2143                           	callstack 0
  2144   001B6E                     _vfpfcnvrt:
  2145                           	callstack 25
  2146   001B6E                     
  2147                           ;C:\Program Files\Microchip\xc8\v3.10\pic\sources\c99\common\doprnt.c: 1177: vfpfcnvrt(F
      +                          ILE *fp, char *fmt[], va_list ap);C:\Program Files\Microchip\xc8\v3.10\pic\sources\c99\c
      +                          ommon\doprnt.c: 1178: {;C:\Program Files\Microchip\xc8\v3.10\pic\sources\c99\common\dopr
      +                          nt.c: 1179:     char c, *cp;;C:\Program Files\Microchip\xc8\v3.10\pic\sources\c99\common
      +                          \doprnt.c: 1180:     _Bool done;;C:\Program Files\Microchip\xc8\v3.10\pic\sources\c99\co
      +                          mmon\doprnt.c: 1188:  } convarg;;C:\Program Files\Microchip\xc8\v3.10\pic\sources\c99\co
      +                          mmon\doprnt.c: 1201:     if ((*fmt)[0] == '%') {
  2148   001B6E  500C               	movf	vfpfcnvrt@fmt^0,w,c
  2149   001B70  6ED9               	movwf	fsr2l,c
  2150   001B72  6ADA               	clrf	fsr2h,c
  2151   001B74  CFDF FFF6          	movff	indf2,tblptrl
  2152   001B78                     	if	0	;There is only one active tblptr byte
  2153   001B78                     	endif
  2154   001B78                     	if	0	;tblptru may be non-zero
  2155   001B78                     	endif
  2156   001B78                     	if	0	;tblptru may be non-zero
  2157   001B78                     	endif
  2158   001B78  0008               	tblrd		*
  2159   001B7A  50F5               	movf	tablat,w,c
  2160   001B7C  0A25               	xorlw	37
  2161   001B7E  A4D8               	btfss	status,2,c
  2162   001B80  EFC4  F00D         	goto	u1331
  2163   001B84  EFC6  F00D         	goto	u1330
  2164   001B88                     u1331:
  2165   001B88  EF78  F00E         	goto	l1875
  2166   001B8C                     u1330:
  2167   001B8C                     
  2168                           ;C:\Program Files\Microchip\xc8\v3.10\pic\sources\c99\common\doprnt.c: 1202:         ++*
      +                          fmt;
  2169   001B8C  500C               	movf	vfpfcnvrt@fmt^0,w,c
  2170   001B8E  6ED9               	movwf	fsr2l,c
  2171   001B90  6ADA               	clrf	fsr2h,c
  2172   001B92  2ADF               	incf	indf2,f,c
  2173   001B94                     
  2174                           ;C:\Program Files\Microchip\xc8\v3.10\pic\sources\c99\common\doprnt.c: 1204:         fla
      +                          gs = width = 0;
  2175   001B94  6A50               	clrf	(_width+1)^0,c
  2176   001B96  0E00               	movlw	0
  2177   001B98  6E4F               	movwf	_width^0,c
  2178   001B9A  C04F  F053         	movff	_width,_flags
  2179   001B9E                     
  2180                           ;C:\Program Files\Microchip\xc8\v3.10\pic\sources\c99\common\doprnt.c: 1205:         pre
      +                          c = -1;
  2181   001B9E  6851               	setf	_prec^0,c
  2182   001BA0  6852               	setf	(_prec+1)^0,c
  2183   001BA2                     
  2184                           ;C:\Program Files\Microchip\xc8\v3.10\pic\sources\c99\common\doprnt.c: 1291:   cp = *fmt
      +                          ;
  2185   001BA2  500C               	movf	vfpfcnvrt@fmt^0,w,c
  2186   001BA4  6ED9               	movwf	fsr2l,c
  2187   001BA6  6ADA               	clrf	fsr2h,c
  2188   001BA8  50DF               	movf	indf2,w,c
  2189   001BAA  6E10               	movwf	vfpfcnvrt@cp^0,c
  2190   001BAC                     
  2191                           ;C:\Program Files\Microchip\xc8\v3.10\pic\sources\c99\common\doprnt.c: 1361:   if (*cp =
      +                          = 'd' || *cp == 'i') {
  2192   001BAC  C010  FFF6         	movff	vfpfcnvrt@cp,tblptrl
  2193   001BB0                     	if	0	;There is only one active tblptr byte
  2194   001BB0                     	endif
  2195   001BB0                     	if	0	;tblptru may be non-zero
  2196   001BB0                     	endif
  2197   001BB0                     	if	0	;tblptru may be non-zero
  2198   001BB0                     	endif
  2199   001BB0  0008               	tblrd		*
  2200   001BB2  50F5               	movf	tablat,w,c
  2201   001BB4  0A64               	xorlw	100
  2202   001BB6  B4D8               	btfsc	status,2,c
  2203   001BB8  EFE0  F00D         	goto	u1341
  2204   001BBC  EFE2  F00D         	goto	u1340
  2205   001BC0                     u1341:
  2206   001BC0  EFEE  F00D         	goto	l1845
  2207   001BC4                     u1340:
  2208   001BC4  C010  FFF6         	movff	vfpfcnvrt@cp,tblptrl
  2209   001BC8                     	if	0	;There is only one active tblptr byte
  2210   001BC8                     	endif
  2211   001BC8                     	if	0	;tblptru may be non-zero
  2212   001BC8                     	endif
  2213   001BC8                     	if	0	;tblptru may be non-zero
  2214   001BC8                     	endif
  2215   001BC8  0008               	tblrd		*
  2216   001BCA  50F5               	movf	tablat,w,c
  2217   001BCC  0A69               	xorlw	105
  2218   001BCE  A4D8               	btfss	status,2,c
  2219   001BD0  EFEC  F00D         	goto	u1351
  2220   001BD4  EFEE  F00D         	goto	u1350
  2221   001BD8                     u1351:
  2222   001BD8  EF72  F00E         	goto	l1871
  2223   001BDC                     u1350:
  2224   001BDC                     l1845:
  2225                           
  2226                           ;C:\Program Files\Microchip\xc8\v3.10\pic\sources\c99\common\doprnt.c: 1404:    convarg.
      +                          sint = (vfpf_sint_t)(int)(*(int *)__va_arg(*(int **)ap, (int)0));
  2227   001BDC  500D               	movf	vfpfcnvrt@ap^0,w,c
  2228   001BDE  6ED9               	movwf	fsr2l,c
  2229   001BE0  6ADA               	clrf	fsr2h,c
  2230   001BE2  0E02               	movlw	2
  2231   001BE4  26DF               	addwf	indf2,f,c
  2232   001BE6  5CDF               	subwf	indf2,w,c
  2233   001BE8  6ED9               	movwf	fsr2l,c
  2234   001BEA  6ADA               	clrf	fsr2h,c
  2235   001BEC  CFDE F011          	movff	postinc2,vfpfcnvrt@convarg
  2236   001BF0  CFDE F012          	movff	postinc2,vfpfcnvrt@convarg+1
  2237   001BF4                     
  2238                           ;C:\Program Files\Microchip\xc8\v3.10\pic\sources\c99\common\doprnt.c: 1406:    *fmt = c
      +                          p+1;
  2239   001BF4  500C               	movf	vfpfcnvrt@fmt^0,w,c
  2240   001BF6  6ED9               	movwf	fsr2l,c
  2241   001BF8  6ADA               	clrf	fsr2h,c
  2242   001BFA  2810               	incf	vfpfcnvrt@cp^0,w,c
  2243   001BFC  6EDF               	movwf	indf2,c
  2244   001BFE                     
  2245                           ;C:\Program Files\Microchip\xc8\v3.10\pic\sources\c99\common\doprnt.c: 1408:    c = size
      +                          of(dbuf);
  2246   001BFE  0E20               	movlw	32
  2247   001C00  6E15               	movwf	vfpfcnvrt@c^0,c
  2248                           
  2249                           ;C:\Program Files\Microchip\xc8\v3.10\pic\sources\c99\common\doprnt.c: 1409:    done = c
      +                          onvarg.sint < 0;
  2250   001C02  BE12               	btfsc	(vfpfcnvrt@convarg+1)^0,7,c
  2251   001C04  EF06  F00E         	goto	u1361
  2252   001C08  EF09  F00E         	goto	u1360
  2253   001C0C                     u1361:
  2254   001C0C  0E01               	movlw	1
  2255   001C0E  EF0A  F00E         	goto	u1370
  2256   001C12                     u1360:
  2257   001C12  0E00               	movlw	0
  2258   001C14                     u1370:
  2259   001C14  6E0F               	movwf	vfpfcnvrt@done^0,c
  2260   001C16                     l1851:
  2261                           
  2262                           ;C:\Program Files\Microchip\xc8\v3.10\pic\sources\c99\common\doprnt.c: 1411:     dbuf[--
      +                          c] = abs(convarg.sint % 10) + '0';
  2263   001C16  0615               	decf	vfpfcnvrt@c^0,f,c
  2264   001C18  5015               	movf	vfpfcnvrt@c^0,w,c
  2265   001C1A  0F60               	addlw	low _dbuf
  2266   001C1C  6ED9               	movwf	fsr2l,c
  2267   001C1E  6ADA               	clrf	fsr2h,c
  2268   001C20  C011  F001         	movff	vfpfcnvrt@convarg,___awmod@dividend
  2269   001C24  C012  F002         	movff	vfpfcnvrt@convarg+1,___awmod@dividend+1
  2270   001C28  6A04               	clrf	(___awmod@divisor+1)^0,c
  2271   001C2A  0E0A               	movlw	10
  2272   001C2C  6E03               	movwf	___awmod@divisor^0,c
  2273   001C2E  EC49  F010         	call	___awmod	;wreg free
  2274   001C32  C001  F007         	movff	?___awmod,abs@a
  2275   001C36  C002  F008         	movff	?___awmod+1,abs@a+1
  2276   001C3A  EC2C  F012         	call	_abs	;wreg free
  2277   001C3E  5007               	movf	?_abs^0,w,c
  2278   001C40  0F30               	addlw	48
  2279   001C42  6EDF               	movwf	indf2,c
  2280   001C44                     
  2281                           ;C:\Program Files\Microchip\xc8\v3.10\pic\sources\c99\common\doprnt.c: 1412:     convarg
      +                          .sint /= 10;
  2282   001C44  C011  F001         	movff	vfpfcnvrt@convarg,___awdiv@dividend
  2283   001C48  C012  F002         	movff	vfpfcnvrt@convarg+1,___awdiv@dividend+1
  2284   001C4C  6A04               	clrf	(___awdiv@divisor+1)^0,c
  2285   001C4E  0E0A               	movlw	10
  2286   001C50  6E03               	movwf	___awdiv@divisor^0,c
  2287   001C52  ECE9  F00F         	call	___awdiv	;wreg free
  2288   001C56  C001  F011         	movff	?___awdiv,vfpfcnvrt@convarg
  2289   001C5A  C002  F012         	movff	?___awdiv+1,vfpfcnvrt@convarg+1
  2290   001C5E                     
  2291                           ;C:\Program Files\Microchip\xc8\v3.10\pic\sources\c99\common\doprnt.c: 1416:    } while 
      +                          (convarg.sint != 0 && c != 0);
  2292   001C5E  5011               	movf	vfpfcnvrt@convarg^0,w,c
  2293   001C60  1012               	iorwf	(vfpfcnvrt@convarg+1)^0,w,c
  2294   001C62  B4D8               	btfsc	status,2,c
  2295   001C64  EF36  F00E         	goto	u1381
  2296   001C68  EF38  F00E         	goto	u1380
  2297   001C6C                     u1381:
  2298   001C6C  EF40  F00E         	goto	l1859
  2299   001C70                     u1380:
  2300   001C70  5015               	movf	vfpfcnvrt@c^0,w,c
  2301   001C72  A4D8               	btfss	status,2,c
  2302   001C74  EF3E  F00E         	goto	u1391
  2303   001C78  EF40  F00E         	goto	u1390
  2304   001C7C                     u1391:
  2305   001C7C  EF0B  F00E         	goto	l1851
  2306   001C80                     u1390:
  2307   001C80                     l1859:
  2308                           
  2309                           ;C:\Program Files\Microchip\xc8\v3.10\pic\sources\c99\common\doprnt.c: 1417:    if (c !=
      +                           0 && done) {
  2310   001C80  5015               	movf	vfpfcnvrt@c^0,w,c
  2311   001C82  B4D8               	btfsc	status,2,c
  2312   001C84  EF46  F00E         	goto	u1401
  2313   001C88  EF48  F00E         	goto	u1400
  2314   001C8C                     u1401:
  2315   001C8C  EF67  F00E         	goto	l1869
  2316   001C90                     u1400:
  2317   001C90  500F               	movf	vfpfcnvrt@done^0,w,c
  2318   001C92  B4D8               	btfsc	status,2,c
  2319   001C94  EF4E  F00E         	goto	u1411
  2320   001C98  EF50  F00E         	goto	u1410
  2321   001C9C                     u1411:
  2322   001C9C  EF67  F00E         	goto	l1869
  2323   001CA0                     u1410:
  2324   001CA0                     
  2325                           ;C:\Program Files\Microchip\xc8\v3.10\pic\sources\c99\common\doprnt.c: 1418:     dbuf[--
      +                          c] = '-';
  2326   001CA0  0615               	decf	vfpfcnvrt@c^0,f,c
  2327   001CA2  5015               	movf	vfpfcnvrt@c^0,w,c
  2328   001CA4  0F60               	addlw	low _dbuf
  2329   001CA6  6ED9               	movwf	fsr2l,c
  2330   001CA8  6ADA               	clrf	fsr2h,c
  2331   001CAA  0E2D               	movlw	45
  2332   001CAC  6EDF               	movwf	indf2,c
  2333   001CAE  EF67  F00E         	goto	l1869
  2334   001CB2                     l1865:
  2335                           
  2336                           ;C:\Program Files\Microchip\xc8\v3.10\pic\sources\c99\common\doprnt.c: 1424:     fputc(d
      +                          buf[c++], fp);
  2337   001CB2  5015               	movf	vfpfcnvrt@c^0,w,c
  2338   001CB4  0F60               	addlw	low _dbuf
  2339   001CB6  6ED9               	movwf	fsr2l,c
  2340   001CB8  6ADA               	clrf	fsr2h,c
  2341   001CBA  50DF               	movf	indf2,w,c
  2342   001CBC  6E0E               	movwf	??_vfpfcnvrt^0,c
  2343   001CBE  500E               	movf	??_vfpfcnvrt^0,w,c
  2344   001CC0  6E01               	movwf	fputc@c^0,c
  2345   001CC2  6A02               	clrf	(fputc@c+1)^0,c
  2346   001CC4  C00B  F003         	movff	vfpfcnvrt@fp,fputc@fp
  2347   001CC8  ECA0  F010         	call	_fputc	;wreg free
  2348   001CCC  2A15               	incf	vfpfcnvrt@c^0,f,c
  2349   001CCE                     l1869:
  2350                           
  2351                           ;C:\Program Files\Microchip\xc8\v3.10\pic\sources\c99\common\doprnt.c: 1423:    while (c
      +                           != sizeof(dbuf)) {
  2352   001CCE  0E20               	movlw	32
  2353   001CD0  1815               	xorwf	vfpfcnvrt@c^0,w,c
  2354   001CD2  A4D8               	btfss	status,2,c
  2355   001CD4  EF6E  F00E         	goto	u1421
  2356   001CD8  EF70  F00E         	goto	u1420
  2357   001CDC                     u1421:
  2358   001CDC  EF59  F00E         	goto	l1865
  2359   001CE0                     u1420:
  2360   001CE0  EF87  F00E         	goto	l983
  2361   001CE4                     l1871:
  2362                           
  2363                           ;C:\Program Files\Microchip\xc8\v3.10\pic\sources\c99\common\doprnt.c: 1806:         ++*
      +                          fmt;
  2364   001CE4  500C               	movf	vfpfcnvrt@fmt^0,w,c
  2365   001CE6  6ED9               	movwf	fsr2l,c
  2366   001CE8  6ADA               	clrf	fsr2h,c
  2367   001CEA  2ADF               	incf	indf2,f,c
  2368   001CEC  EF87  F00E         	goto	l983
  2369   001CF0                     l1875:
  2370                           
  2371                           ;C:\Program Files\Microchip\xc8\v3.10\pic\sources\c99\common\doprnt.c: 1811:     fputc((
      +                          int)(*fmt)[0], fp);
  2372   001CF0  500C               	movf	vfpfcnvrt@fmt^0,w,c
  2373   001CF2  6ED9               	movwf	fsr2l,c
  2374   001CF4  6ADA               	clrf	fsr2h,c
  2375   001CF6  CFDF FFF6          	movff	indf2,tblptrl
  2376   001CFA                     	if	0	;There is only one active tblptr byte
  2377   001CFA                     	endif
  2378   001CFA                     	if	0	;tblptru may be non-zero
  2379   001CFA                     	endif
  2380   001CFA                     	if	0	;tblptru may be non-zero
  2381   001CFA                     	endif
  2382   001CFA  0008               	tblrd		*
  2383   001CFC  50F5               	movf	tablat,w,c
  2384   001CFE  6E01               	movwf	fputc@c^0,c
  2385   001D00  6A02               	clrf	(fputc@c+1)^0,c
  2386   001D02  C00B  F003         	movff	vfpfcnvrt@fp,fputc@fp
  2387   001D06  ECA0  F010         	call	_fputc	;wreg free
  2388   001D0A  EF72  F00E         	goto	l1871
  2389   001D0E                     l983:
  2390   001D0E  0012               	return		;funcret
  2391   001D10                     __end_of_vfpfcnvrt:
  2392                           	callstack 0
  2393                           
  2394 ;; *************** function _fputc *****************
  2395 ;; Defined at:
  2396 ;;		line 8 in file "C:\Program Files\Microchip\xc8\v3.10\pic\sources\c99\common\nf_fputc.c"
  2397 ;; Parameters:    Size  Location     Type
  2398 ;;  c               2    0[COMRAM] int 
  2399 ;;  fp              1    2[COMRAM] PTR struct _IO_FILE
  2400 ;;		 -> sprintf@f(11), 
  2401 ;; Auto vars:     Size  Location     Type
  2402 ;;		None
  2403 ;; Return value:  Size  Location     Type
  2404 ;;                  2    0[COMRAM] int 
  2405 ;; Registers used:
  2406 ;;		wreg, fsr1l, fsr1h, fsr2l, fsr2h, status,2, status,0, cstack
  2407 ;; Tracked objects:
  2408 ;;		On entry : 0/0
  2409 ;;		On exit  : 0/0
  2410 ;;		Unchanged: 0/0
  2411 ;; Data sizes:     COMRAM   BANK0   BANK1   BANK2   BANK3   BANK4   BANK5   BANK6   BANK7   BANK8   BANK9  BANK10  BANK1
      +1  BANK12  BANK13  BANK14  BANK15
  2412 ;;      Params:         3       0       0       0       0       0       0       0       0       0       0       0       
      +0       0       0       0       0
  2413 ;;      Locals:         0       0       0       0       0       0       0       0       0       0       0       0       
      +0       0       0       0       0
  2414 ;;      Temps:          5       0       0       0       0       0       0       0       0       0       0       0       
      +0       0       0       0       0
  2415 ;;      Totals:         8       0       0       0       0       0       0       0       0       0       0       0       
      +0       0       0       0       0
  2416 ;;Total ram usage:        8 bytes
  2417 ;; Hardware stack levels used: 1
  2418 ;; Hardware stack levels required when called: 1
  2419 ;; This function calls:
  2420 ;;		_putch
  2421 ;; This function is called by:
  2422 ;;		_vfpfcnvrt
  2423 ;; This function uses a non-reentrant model
  2424 ;;
  2425                           
  2426                           	psect	text10
  2427   002140                     __ptext10:
  2428                           	callstack 0
  2429   002140                     _fputc:
  2430                           	callstack 25
  2431   002140  5003               	movf	fputc@fp^0,w,c
  2432   002142  B4D8               	btfsc	status,2,c
  2433   002144  EFA6  F010         	goto	u1281
  2434   002148  EFA8  F010         	goto	u1280
  2435   00214C                     u1281:
  2436   00214C  EFB0  F010         	goto	l1817
  2437   002150                     u1280:
  2438   002150  5003               	movf	fputc@fp^0,w,c
  2439   002152  A4D8               	btfss	status,2,c
  2440   002154  EFAE  F010         	goto	u1291
  2441   002158  EFB0  F010         	goto	u1290
  2442   00215C                     u1291:
  2443   00215C  EFB5  F010         	goto	l1819
  2444   002160                     u1290:
  2445   002160                     l1817:
  2446   002160  5001               	movf	fputc@c^0,w,c
  2447   002162  EC83  F012         	call	_putch
  2448   002166  EFF4  F010         	goto	l1008
  2449   00216A                     l1819:
  2450   00216A  5003               	movf	fputc@fp^0,w,c
  2451   00216C  6ED9               	movwf	fsr2l,c
  2452   00216E  6ADA               	clrf	fsr2h,c
  2453   002170  0E09               	movlw	9
  2454   002172  26D9               	addwf	fsr2l,f,c
  2455   002174  50DE               	movf	postinc2,w,c
  2456   002176  10DE               	iorwf	postinc2,w,c
  2457   002178  B4D8               	btfsc	status,2,c
  2458   00217A  EFC1  F010         	goto	u1301
  2459   00217E  EFC3  F010         	goto	u1300
  2460   002182                     u1301:
  2461   002182  EFDC  F010         	goto	l1823
  2462   002186                     u1300:
  2463   002186  5003               	movf	fputc@fp^0,w,c
  2464   002188  6ED9               	movwf	fsr2l,c
  2465   00218A  6ADA               	clrf	fsr2h,c
  2466   00218C  0E09               	movlw	9
  2467   00218E  26D9               	addwf	fsr2l,f,c
  2468   002190  5003               	movf	fputc@fp^0,w,c
  2469   002192  6EE1               	movwf	fsr1l,c
  2470   002194  6AE2               	clrf	fsr1h,c
  2471   002196  0E02               	movlw	2
  2472   002198  26E1               	addwf	fsr1l,f,c
  2473   00219A  50DE               	movf	postinc2,w,c
  2474   00219C  5CE6               	subwf	postinc1,w,c
  2475   00219E  50E6               	movf	postinc1,w,c
  2476   0021A0  0A80               	xorlw	128
  2477   0021A2  6E08               	movwf	(??_fputc+4)^0,c
  2478   0021A4  50DE               	movf	postinc2,w,c
  2479   0021A6  0A80               	xorlw	128
  2480   0021A8  5808               	subwfb	(??_fputc+4)^0,w,c
  2481   0021AA  B0D8               	btfsc	status,0,c
  2482   0021AC  EFDA  F010         	goto	u1311
  2483   0021B0  EFDC  F010         	goto	u1310
  2484   0021B4                     u1311:
  2485   0021B4  EFF4  F010         	goto	l1008
  2486   0021B8                     u1310:
  2487   0021B8                     l1823:
  2488   0021B8  5003               	movf	fputc@fp^0,w,c
  2489   0021BA  6ED9               	movwf	fsr2l,c
  2490   0021BC  6ADA               	clrf	fsr2h,c
  2491   0021BE  0E02               	movlw	2
  2492   0021C0  26D9               	addwf	fsr2l,f,c
  2493   0021C2  50DF               	movf	indf2,w,c
  2494   0021C4  6E04               	movwf	??_fputc^0,c
  2495   0021C6  5003               	movf	fputc@fp^0,w,c
  2496   0021C8  6ED9               	movwf	fsr2l,c
  2497   0021CA  6ADA               	clrf	fsr2h,c
  2498   0021CC  50DF               	movf	indf2,w,c
  2499   0021CE  2404               	addwf	??_fputc^0,w,c
  2500   0021D0  6ED9               	movwf	fsr2l,c
  2501   0021D2  6ADA               	clrf	fsr2h,c
  2502   0021D4  C001  FFDF         	movff	fputc@c,indf2
  2503   0021D8  5003               	movf	fputc@fp^0,w,c
  2504   0021DA  6ED9               	movwf	fsr2l,c
  2505   0021DC  6ADA               	clrf	fsr2h,c
  2506   0021DE  0E02               	movlw	2
  2507   0021E0  26D9               	addwf	fsr2l,f,c
  2508   0021E2  2ADE               	incf	postinc2,f,c
  2509   0021E4  0E00               	movlw	0
  2510   0021E6  22DD               	addwfc	postdec2,f,c
  2511   0021E8                     l1008:
  2512   0021E8  0012               	return		;funcret
  2513   0021EA                     __end_of_fputc:
  2514                           	callstack 0
  2515                           
  2516 ;; *************** function _putch *****************
  2517 ;; Defined at:
  2518 ;;		line 7 in file "C:\Program Files\Microchip\xc8\v3.10\pic\sources\c99\common\putch.c"
  2519 ;; Parameters:    Size  Location     Type
  2520 ;;  c               1    wreg     unsigned char 
  2521 ;; Auto vars:     Size  Location     Type
  2522 ;;  c               1    0[COMRAM] unsigned char 
  2523 ;; Return value:  Size  Location     Type
  2524 ;;                  1    wreg      void 
  2525 ;; Registers used:
  2526 ;;		wreg
  2527 ;; Tracked objects:
  2528 ;;		On entry : 0/0
  2529 ;;		On exit  : 0/0
  2530 ;;		Unchanged: 0/0
  2531 ;; Data sizes:     COMRAM   BANK0   BANK1   BANK2   BANK3   BANK4   BANK5   BANK6   BANK7   BANK8   BANK9  BANK10  BANK1
      +1  BANK12  BANK13  BANK14  BANK15
  2532 ;;      Params:         0       0       0       0       0       0       0       0       0       0       0       0       
      +0       0       0       0       0
  2533 ;;      Locals:         0       0       0       0       0       0       0       0       0       0       0       0       
      +0       0       0       0       0
  2534 ;;      Temps:          0       0       0       0       0       0       0       0       0       0       0       0       
      +0       0       0       0       0
  2535 ;;      Totals:         0       0       0       0       0       0       0       0       0       0       0       0       
      +0       0       0       0       0
  2536 ;;Total ram usage:        0 bytes
  2537 ;; Hardware stack levels used: 1
  2538 ;; This function calls:
  2539 ;;		Nothing
  2540 ;; This function is called by:
  2541 ;;		_fputc
  2542 ;; This function uses a non-reentrant model
  2543 ;;
  2544                           
  2545                           	psect	text11
  2546   002506                     __ptext11:
  2547                           	callstack 0
  2548   002506                     _putch:
  2549                           	callstack 25
  2550   002506  0012               	return		;funcret
  2551   002508                     __end_of_putch:
  2552                           	callstack 0
  2553                           
  2554 ;; *************** function _abs *****************
  2555 ;; Defined at:
  2556 ;;		line 1 in file "C:\Program Files\Microchip\xc8\v3.10\pic\sources\c99\common\abs.c"
  2557 ;; Parameters:    Size  Location     Type
  2558 ;;  a               2    6[COMRAM] int 
  2559 ;; Auto vars:     Size  Location     Type
  2560 ;;		None
  2561 ;; Return value:  Size  Location     Type
  2562 ;;                  2    6[COMRAM] int 
  2563 ;; Registers used:
  2564 ;;		wreg, status,2, status,0
  2565 ;; Tracked objects:
  2566 ;;		On entry : 0/0
  2567 ;;		On exit  : 0/0
  2568 ;;		Unchanged: 0/0
  2569 ;; Data sizes:     COMRAM   BANK0   BANK1   BANK2   BANK3   BANK4   BANK5   BANK6   BANK7   BANK8   BANK9  BANK10  BANK1
      +1  BANK12  BANK13  BANK14  BANK15
  2570 ;;      Params:         2       0       0       0       0       0       0       0       0       0       0       0       
      +0       0       0       0       0
  2571 ;;      Locals:         0       0       0       0       0       0       0       0       0       0       0       0       
      +0       0       0       0       0
  2572 ;;      Temps:          2       0       0       0       0       0       0       0       0       0       0       0       
      +0       0       0       0       0
  2573 ;;      Totals:         4       0       0       0       0       0       0       0       0       0       0       0       
      +0       0       0       0       0
  2574 ;;Total ram usage:        4 bytes
  2575 ;; Hardware stack levels used: 1
  2576 ;; This function calls:
  2577 ;;		Nothing
  2578 ;; This function is called by:
  2579 ;;		_vfpfcnvrt
  2580 ;; This function uses a non-reentrant model
  2581 ;;
  2582                           
  2583                           	psect	text12
  2584   002458                     __ptext12:
  2585                           	callstack 0
  2586   002458                     _abs:
  2587                           	callstack 26
  2588   002458  BE08               	btfsc	(abs@a+1)^0,7,c
  2589   00245A  EF31  F012         	goto	u1321
  2590   00245E  EF33  F012         	goto	u1320
  2591   002462                     u1321:
  2592   002462  EF39  F012         	goto	l993
  2593   002466                     u1320:
  2594   002466  C007  F007         	movff	abs@a,?_abs
  2595   00246A  C008  F008         	movff	abs@a+1,?_abs+1
  2596   00246E  EF45  F012         	goto	l996
  2597   002472                     l993:
  2598   002472  C007  F009         	movff	abs@a,??_abs
  2599   002476  C008  F00A         	movff	abs@a+1,??_abs+1
  2600   00247A  1E09               	comf	??_abs^0,f,c
  2601   00247C  1E0A               	comf	(??_abs+1)^0,f,c
  2602   00247E  4A09               	infsnz	??_abs^0,f,c
  2603   002480  2A0A               	incf	(??_abs+1)^0,f,c
  2604   002482  C009  F007         	movff	??_abs,?_abs
  2605   002486  C00A  F008         	movff	??_abs+1,?_abs+1
  2606   00248A                     l996:
  2607   00248A  0012               	return		;funcret
  2608   00248C                     __end_of_abs:
  2609                           	callstack 0
  2610                           
  2611 ;; *************** function ___awmod *****************
  2612 ;; Defined at:
  2613 ;;		line 7 in file "C:\Program Files\Microchip\xc8\v3.10\pic\sources\c99\common\awmod.c"
  2614 ;; Parameters:    Size  Location     Type
  2615 ;;  dividend        2    0[COMRAM] int 
  2616 ;;  divisor         2    2[COMRAM] int 
  2617 ;; Auto vars:     Size  Location     Type
  2618 ;;  sign            1    5[COMRAM] unsigned char 
  2619 ;;  counter         1    4[COMRAM] unsigned char 
  2620 ;; Return value:  Size  Location     Type
  2621 ;;                  2    0[COMRAM] int 
  2622 ;; Registers used:
  2623 ;;		wreg, status,2, status,0
  2624 ;; Tracked objects:
  2625 ;;		On entry : 0/0
  2626 ;;		On exit  : 0/0
  2627 ;;		Unchanged: 0/0
  2628 ;; Data sizes:     COMRAM   BANK0   BANK1   BANK2   BANK3   BANK4   BANK5   BANK6   BANK7   BANK8   BANK9  BANK10  BANK1
      +1  BANK12  BANK13  BANK14  BANK15
  2629 ;;      Params:         4       0       0       0       0       0       0       0       0       0       0       0       
      +0       0       0       0       0
  2630 ;;      Locals:         2       0       0       0       0       0       0       0       0       0       0       0       
      +0       0       0       0       0
  2631 ;;      Temps:          0       0       0       0       0       0       0       0       0       0       0       0       
      +0       0       0       0       0
  2632 ;;      Totals:         6       0       0       0       0       0       0       0       0       0       0       0       
      +0       0       0       0       0
  2633 ;;Total ram usage:        6 bytes
  2634 ;; Hardware stack levels used: 1
  2635 ;; This function calls:
  2636 ;;		Nothing
  2637 ;; This function is called by:
  2638 ;;		_main
  2639 ;;		_vfpfcnvrt
  2640 ;; This function uses a non-reentrant model
  2641 ;;
  2642                           
  2643                           	psect	text13
  2644   002092                     __ptext13:
  2645                           	callstack 0
  2646   002092                     ___awmod:
  2647                           	callstack 26
  2648   002092  6A06               	clrf	___awmod@sign^0,c
  2649   002094  BE02               	btfsc	(___awmod@dividend+1)^0,7,c
  2650   002096  EF51  F010         	goto	u1220
  2651   00209A  EF4F  F010         	goto	u1221
  2652   00209E                     u1221:
  2653   00209E  EF57  F010         	goto	l1785
  2654   0020A2                     u1220:
  2655   0020A2  6C01               	negf	___awmod@dividend^0,c
  2656   0020A4  1E02               	comf	(___awmod@dividend+1)^0,f,c
  2657   0020A6  B0D8               	btfsc	status,0,c
  2658   0020A8  2A02               	incf	(___awmod@dividend+1)^0,f,c
  2659   0020AA  0E01               	movlw	1
  2660   0020AC  6E06               	movwf	___awmod@sign^0,c
  2661   0020AE                     l1785:
  2662   0020AE  BE04               	btfsc	(___awmod@divisor+1)^0,7,c
  2663   0020B0  EF5E  F010         	goto	u1230
  2664   0020B4  EF5C  F010         	goto	u1231
  2665   0020B8                     u1231:
  2666   0020B8  EF62  F010         	goto	l1789
  2667   0020BC                     u1230:
  2668   0020BC  6C03               	negf	___awmod@divisor^0,c
  2669   0020BE  1E04               	comf	(___awmod@divisor+1)^0,f,c
  2670   0020C0  B0D8               	btfsc	status,0,c
  2671   0020C2  2A04               	incf	(___awmod@divisor+1)^0,f,c
  2672   0020C4                     l1789:
  2673   0020C4  5003               	movf	___awmod@divisor^0,w,c
  2674   0020C6  1004               	iorwf	(___awmod@divisor+1)^0,w,c
  2675   0020C8  B4D8               	btfsc	status,2,c
  2676   0020CA  EF69  F010         	goto	u1241
  2677   0020CE  EF6B  F010         	goto	u1240
  2678   0020D2                     u1241:
  2679   0020D2  EF8F  F010         	goto	l1805
  2680   0020D6                     u1240:
  2681   0020D6  0E01               	movlw	1
  2682   0020D8  6E05               	movwf	___awmod@counter^0,c
  2683   0020DA  EF73  F010         	goto	l1795
  2684   0020DE                     l1793:
  2685   0020DE  90D8               	bcf	status,0,c
  2686   0020E0  3603               	rlcf	___awmod@divisor^0,f,c
  2687   0020E2  3604               	rlcf	(___awmod@divisor+1)^0,f,c
  2688   0020E4  2A05               	incf	___awmod@counter^0,f,c
  2689   0020E6                     l1795:
  2690   0020E6  AE04               	btfss	(___awmod@divisor+1)^0,7,c
  2691   0020E8  EF78  F010         	goto	u1251
  2692   0020EC  EF7A  F010         	goto	u1250
  2693   0020F0                     u1251:
  2694   0020F0  EF6F  F010         	goto	l1793
  2695   0020F4                     u1250:
  2696   0020F4                     l1797:
  2697   0020F4  5003               	movf	___awmod@divisor^0,w,c
  2698   0020F6  5C01               	subwf	___awmod@dividend^0,w,c
  2699   0020F8  5004               	movf	(___awmod@divisor+1)^0,w,c
  2700   0020FA  5802               	subwfb	(___awmod@dividend+1)^0,w,c
  2701   0020FC  A0D8               	btfss	status,0,c
  2702   0020FE  EF83  F010         	goto	u1261
  2703   002102  EF85  F010         	goto	u1260
  2704   002106                     u1261:
  2705   002106  EF89  F010         	goto	l1801
  2706   00210A                     u1260:
  2707   00210A  5003               	movf	___awmod@divisor^0,w,c
  2708   00210C  5E01               	subwf	___awmod@dividend^0,f,c
  2709   00210E  5004               	movf	(___awmod@divisor+1)^0,w,c
  2710   002110  5A02               	subwfb	(___awmod@dividend+1)^0,f,c
  2711   002112                     l1801:
  2712   002112  90D8               	bcf	status,0,c
  2713   002114  3204               	rrcf	(___awmod@divisor+1)^0,f,c
  2714   002116  3203               	rrcf	___awmod@divisor^0,f,c
  2715   002118  2E05               	decfsz	___awmod@counter^0,f,c
  2716   00211A  EF7A  F010         	goto	l1797
  2717   00211E                     l1805:
  2718   00211E  5006               	movf	___awmod@sign^0,w,c
  2719   002120  B4D8               	btfsc	status,2,c
  2720   002122  EF95  F010         	goto	u1271
  2721   002126  EF97  F010         	goto	u1270
  2722   00212A                     u1271:
  2723   00212A  EF9B  F010         	goto	l1809
  2724   00212E                     u1270:
  2725   00212E  6C01               	negf	___awmod@dividend^0,c
  2726   002130  1E02               	comf	(___awmod@dividend+1)^0,f,c
  2727   002132  B0D8               	btfsc	status,0,c
  2728   002134  2A02               	incf	(___awmod@dividend+1)^0,f,c
  2729   002136                     l1809:
  2730   002136  C001  F001         	movff	___awmod@dividend,?___awmod
  2731   00213A  C002  F002         	movff	___awmod@dividend+1,?___awmod+1
  2732   00213E  0012               	return		;funcret
  2733   002140                     __end_of___awmod:
  2734                           	callstack 0
  2735                           
  2736 ;; *************** function ___awdiv *****************
  2737 ;; Defined at:
  2738 ;;		line 7 in file "C:\Program Files\Microchip\xc8\v3.10\pic\sources\c99\common\awdiv.c"
  2739 ;; Parameters:    Size  Location     Type
  2740 ;;  dividend        2    0[COMRAM] int 
  2741 ;;  divisor         2    2[COMRAM] int 
  2742 ;; Auto vars:     Size  Location     Type
  2743 ;;  quotient        2    6[COMRAM] int 
  2744 ;;  sign            1    5[COMRAM] unsigned char 
  2745 ;;  counter         1    4[COMRAM] unsigned char 
  2746 ;; Return value:  Size  Location     Type
  2747 ;;                  2    0[COMRAM] int 
  2748 ;; Registers used:
  2749 ;;		wreg, status,2, status,0
  2750 ;; Tracked objects:
  2751 ;;		On entry : 0/0
  2752 ;;		On exit  : 0/0
  2753 ;;		Unchanged: 0/0
  2754 ;; Data sizes:     COMRAM   BANK0   BANK1   BANK2   BANK3   BANK4   BANK5   BANK6   BANK7   BANK8   BANK9  BANK10  BANK1
      +1  BANK12  BANK13  BANK14  BANK15
  2755 ;;      Params:         4       0       0       0       0       0       0       0       0       0       0       0       
      +0       0       0       0       0
  2756 ;;      Locals:         4       0       0       0       0       0       0       0       0       0       0       0       
      +0       0       0       0       0
  2757 ;;      Temps:          0       0       0       0       0       0       0       0       0       0       0       0       
      +0       0       0       0       0
  2758 ;;      Totals:         8       0       0       0       0       0       0       0       0       0       0       0       
      +0       0       0       0       0
  2759 ;;Total ram usage:        8 bytes
  2760 ;; Hardware stack levels used: 1
  2761 ;; This function calls:
  2762 ;;		Nothing
  2763 ;; This function is called by:
  2764 ;;		_main
  2765 ;;		_vfpfcnvrt
  2766 ;; This function uses a non-reentrant model
  2767 ;;
  2768                           
  2769                           	psect	text14
  2770   001FD2                     __ptext14:
  2771                           	callstack 0
  2772   001FD2                     ___awdiv:
  2773                           	callstack 26
  2774   001FD2  6A06               	clrf	___awdiv@sign^0,c
  2775   001FD4  BE04               	btfsc	(___awdiv@divisor+1)^0,7,c
  2776   001FD6  EFF1  F00F         	goto	u1160
  2777   001FDA  EFEF  F00F         	goto	u1161
  2778   001FDE                     u1161:
  2779   001FDE  EFF7  F00F         	goto	l1741
  2780   001FE2                     u1160:
  2781   001FE2  6C03               	negf	___awdiv@divisor^0,c
  2782   001FE4  1E04               	comf	(___awdiv@divisor+1)^0,f,c
  2783   001FE6  B0D8               	btfsc	status,0,c
  2784   001FE8  2A04               	incf	(___awdiv@divisor+1)^0,f,c
  2785   001FEA  0E01               	movlw	1
  2786   001FEC  6E06               	movwf	___awdiv@sign^0,c
  2787   001FEE                     l1741:
  2788   001FEE  BE02               	btfsc	(___awdiv@dividend+1)^0,7,c
  2789   001FF0  EFFE  F00F         	goto	u1170
  2790   001FF4  EFFC  F00F         	goto	u1171
  2791   001FF8                     u1171:
  2792   001FF8  EF04  F010         	goto	l1747
  2793   001FFC                     u1170:
  2794   001FFC  6C01               	negf	___awdiv@dividend^0,c
  2795   001FFE  1E02               	comf	(___awdiv@dividend+1)^0,f,c
  2796   002000  B0D8               	btfsc	status,0,c
  2797   002002  2A02               	incf	(___awdiv@dividend+1)^0,f,c
  2798   002004  0E01               	movlw	1
  2799   002006  1A06               	xorwf	___awdiv@sign^0,f,c
  2800   002008                     l1747:
  2801   002008  6A08               	clrf	(___awdiv@quotient+1)^0,c
  2802   00200A  0E00               	movlw	0
  2803   00200C  6E07               	movwf	___awdiv@quotient^0,c
  2804   00200E  5003               	movf	___awdiv@divisor^0,w,c
  2805   002010  1004               	iorwf	(___awdiv@divisor+1)^0,w,c
  2806   002012  B4D8               	btfsc	status,2,c
  2807   002014  EF0E  F010         	goto	u1181
  2808   002018  EF10  F010         	goto	u1180
  2809   00201C                     u1181:
  2810   00201C  EF38  F010         	goto	l1769
  2811   002020                     u1180:
  2812   002020  0E01               	movlw	1
  2813   002022  6E05               	movwf	___awdiv@counter^0,c
  2814   002024  EF18  F010         	goto	l1755
  2815   002028                     l1753:
  2816   002028  90D8               	bcf	status,0,c
  2817   00202A  3603               	rlcf	___awdiv@divisor^0,f,c
  2818   00202C  3604               	rlcf	(___awdiv@divisor+1)^0,f,c
  2819   00202E  2A05               	incf	___awdiv@counter^0,f,c
  2820   002030                     l1755:
  2821   002030  AE04               	btfss	(___awdiv@divisor+1)^0,7,c
  2822   002032  EF1D  F010         	goto	u1191
  2823   002036  EF1F  F010         	goto	u1190
  2824   00203A                     u1191:
  2825   00203A  EF14  F010         	goto	l1753
  2826   00203E                     u1190:
  2827   00203E                     l1757:
  2828   00203E  90D8               	bcf	status,0,c
  2829   002040  3607               	rlcf	___awdiv@quotient^0,f,c
  2830   002042  3608               	rlcf	(___awdiv@quotient+1)^0,f,c
  2831   002044  5003               	movf	___awdiv@divisor^0,w,c
  2832   002046  5C01               	subwf	___awdiv@dividend^0,w,c
  2833   002048  5004               	movf	(___awdiv@divisor+1)^0,w,c
  2834   00204A  5802               	subwfb	(___awdiv@dividend+1)^0,w,c
  2835   00204C  A0D8               	btfss	status,0,c
  2836   00204E  EF2B  F010         	goto	u1201
  2837   002052  EF2D  F010         	goto	u1200
  2838   002056                     u1201:
  2839   002056  EF32  F010         	goto	l1765
  2840   00205A                     u1200:
  2841   00205A  5003               	movf	___awdiv@divisor^0,w,c
  2842   00205C  5E01               	subwf	___awdiv@dividend^0,f,c
  2843   00205E  5004               	movf	(___awdiv@divisor+1)^0,w,c
  2844   002060  5A02               	subwfb	(___awdiv@dividend+1)^0,f,c
  2845   002062  8007               	bsf	___awdiv@quotient^0,0,c
  2846   002064                     l1765:
  2847   002064  90D8               	bcf	status,0,c
  2848   002066  3204               	rrcf	(___awdiv@divisor+1)^0,f,c
  2849   002068  3203               	rrcf	___awdiv@divisor^0,f,c
  2850   00206A  2E05               	decfsz	___awdiv@counter^0,f,c
  2851   00206C  EF1F  F010         	goto	l1757
  2852   002070                     l1769:
  2853   002070  5006               	movf	___awdiv@sign^0,w,c
  2854   002072  B4D8               	btfsc	status,2,c
  2855   002074  EF3E  F010         	goto	u1211
  2856   002078  EF40  F010         	goto	u1210
  2857   00207C                     u1211:
  2858   00207C  EF44  F010         	goto	l1773
  2859   002080                     u1210:
  2860   002080  6C07               	negf	___awdiv@quotient^0,c
  2861   002082  1E08               	comf	(___awdiv@quotient+1)^0,f,c
  2862   002084  B0D8               	btfsc	status,0,c
  2863   002086  2A08               	incf	(___awdiv@quotient+1)^0,f,c
  2864   002088                     l1773:
  2865   002088  C007  F001         	movff	___awdiv@quotient,?___awdiv
  2866   00208C  C008  F002         	movff	___awdiv@quotient+1,?___awdiv+1
  2867   002090  0012               	return		;funcret
  2868   002092                     __end_of___awdiv:
  2869                           	callstack 0
  2870                           
  2871 ;; *************** function ___xxtofl *****************
  2872 ;; Defined at:
  2873 ;;		line 10 in file "C:\Program Files\Microchip\xc8\v3.10\pic\sources\c99\common\xxtofl.c"
  2874 ;; Parameters:    Size  Location     Type
  2875 ;;  sign            1    wreg     unsigned char 
  2876 ;;  val             4    0[COMRAM] long 
  2877 ;; Auto vars:     Size  Location     Type
  2878 ;;  sign            1    8[COMRAM] unsigned char 
  2879 ;;  arg             4   10[COMRAM] unsigned long 
  2880 ;;  exp             1    9[COMRAM] unsigned char 
  2881 ;; Return value:  Size  Location     Type
  2882 ;;                  4    0[COMRAM] unsigned char 
  2883 ;; Registers used:
  2884 ;;		wreg, status,2, status,0
  2885 ;; Tracked objects:
  2886 ;;		On entry : 0/0
  2887 ;;		On exit  : 0/0
  2888 ;;		Unchanged: 0/0
  2889 ;; Data sizes:     COMRAM   BANK0   BANK1   BANK2   BANK3   BANK4   BANK5   BANK6   BANK7   BANK8   BANK9  BANK10  BANK1
      +1  BANK12  BANK13  BANK14  BANK15
  2890 ;;      Params:         4       0       0       0       0       0       0       0       0       0       0       0       
      +0       0       0       0       0
  2891 ;;      Locals:         6       0       0       0       0       0       0       0       0       0       0       0       
      +0       0       0       0       0
  2892 ;;      Temps:          4       0       0       0       0       0       0       0       0       0       0       0       
      +0       0       0       0       0
  2893 ;;      Totals:        14       0       0       0       0       0       0       0       0       0       0       0       
      +0       0       0       0       0
  2894 ;;Total ram usage:       14 bytes
  2895 ;; Hardware stack levels used: 1
  2896 ;; This function calls:
  2897 ;;		Nothing
  2898 ;; This function is called by:
  2899 ;;		_dectohex
  2900 ;; This function uses a non-reentrant model
  2901 ;;
  2902                           
  2903                           	psect	text15
  2904   0019BA                     __ptext15:
  2905                           	callstack 0
  2906   0019BA                     ___xxtofl:
  2907                           	callstack 29
  2908                           
  2909                           ;incstack = 0
  2910                           ;___xxtofl@sign stored from wreg
  2911   0019BA  6E09               	movwf	___xxtofl@sign^0,c
  2912   0019BC  5009               	movf	___xxtofl@sign^0,w,c
  2913   0019BE  B4D8               	btfsc	status,2,c
  2914   0019C0  EFE4  F00C         	goto	u1991
  2915   0019C4  EFE6  F00C         	goto	u1990
  2916   0019C8                     u1991:
  2917   0019C8  EF08  F00D         	goto	l922
  2918   0019CC                     u1990:
  2919   0019CC  BE04               	btfsc	(___xxtofl@val+3)^0,7,c
  2920   0019CE  EFED  F00C         	goto	u2000
  2921   0019D2  EFEB  F00C         	goto	u2001
  2922   0019D6                     u2001:
  2923   0019D6  EF08  F00D         	goto	l922
  2924   0019DA                     u2000:
  2925   0019DA  C001  F005         	movff	___xxtofl@val,??___xxtofl
  2926   0019DE  C002  F006         	movff	___xxtofl@val+1,??___xxtofl+1
  2927   0019E2  C003  F007         	movff	___xxtofl@val+2,??___xxtofl+2
  2928   0019E6  C004  F008         	movff	___xxtofl@val+3,??___xxtofl+3
  2929   0019EA  1E05               	comf	??___xxtofl^0,f,c
  2930   0019EC  1E06               	comf	(??___xxtofl+1)^0,f,c
  2931   0019EE  1E07               	comf	(??___xxtofl+2)^0,f,c
  2932   0019F0  1E08               	comf	(??___xxtofl+3)^0,f,c
  2933   0019F2  2A05               	incf	??___xxtofl^0,f,c
  2934   0019F4  0E00               	movlw	0
  2935   0019F6  2206               	addwfc	(??___xxtofl+1)^0,f,c
  2936   0019F8  2207               	addwfc	(??___xxtofl+2)^0,f,c
  2937   0019FA  2208               	addwfc	(??___xxtofl+3)^0,f,c
  2938   0019FC  C005  F00B         	movff	??___xxtofl,___xxtofl@arg
  2939   001A00  C006  F00C         	movff	??___xxtofl+1,___xxtofl@arg+1
  2940   001A04  C007  F00D         	movff	??___xxtofl+2,___xxtofl@arg+2
  2941   001A08  C008  F00E         	movff	??___xxtofl+3,___xxtofl@arg+3
  2942   001A0C  EF10  F00D         	goto	l2243
  2943   001A10                     l922:
  2944   001A10  C001  F00B         	movff	___xxtofl@val,___xxtofl@arg
  2945   001A14  C002  F00C         	movff	___xxtofl@val+1,___xxtofl@arg+1
  2946   001A18  C003  F00D         	movff	___xxtofl@val+2,___xxtofl@arg+2
  2947   001A1C  C004  F00E         	movff	___xxtofl@val+3,___xxtofl@arg+3
  2948   001A20                     l2243:
  2949   001A20  5001               	movf	___xxtofl@val^0,w,c
  2950   001A22  1002               	iorwf	(___xxtofl@val+1)^0,w,c
  2951   001A24  1003               	iorwf	(___xxtofl@val+2)^0,w,c
  2952   001A26  1004               	iorwf	(___xxtofl@val+3)^0,w,c
  2953   001A28  A4D8               	btfss	status,2,c
  2954   001A2A  EF19  F00D         	goto	u2011
  2955   001A2E  EF1B  F00D         	goto	u2010
  2956   001A32                     u2011:
  2957   001A32  EF25  F00D         	goto	l2249
  2958   001A36                     u2010:
  2959   001A36  0E00               	movlw	0
  2960   001A38  6E01               	movwf	?___xxtofl^0,c
  2961   001A3A  0E00               	movlw	0
  2962   001A3C  6E02               	movwf	(?___xxtofl+1)^0,c
  2963   001A3E  0E00               	movlw	0
  2964   001A40  6E03               	movwf	(?___xxtofl+2)^0,c
  2965   001A42  0E00               	movlw	0
  2966   001A44  6E04               	movwf	(?___xxtofl+3)^0,c
  2967   001A46  EFB6  F00D         	goto	l925
  2968   001A4A                     l2249:
  2969   001A4A  0E96               	movlw	150
  2970   001A4C  6E0A               	movwf	___xxtofl@exp^0,c
  2971   001A4E  EF2F  F00D         	goto	l2253
  2972   001A52                     l2251:
  2973   001A52  2A0A               	incf	___xxtofl@exp^0,f,c
  2974   001A54  90D8               	bcf	status,0,c
  2975   001A56  320E               	rrcf	(___xxtofl@arg+3)^0,f,c
  2976   001A58  320D               	rrcf	(___xxtofl@arg+2)^0,f,c
  2977   001A5A  320C               	rrcf	(___xxtofl@arg+1)^0,f,c
  2978   001A5C  320B               	rrcf	___xxtofl@arg^0,f,c
  2979   001A5E                     l2253:
  2980   001A5E  0E00               	movlw	0
  2981   001A60  140B               	andwf	___xxtofl@arg^0,w,c
  2982   001A62  6E05               	movwf	??___xxtofl^0,c
  2983   001A64  0E00               	movlw	0
  2984   001A66  140C               	andwf	(___xxtofl@arg+1)^0,w,c
  2985   001A68  6E06               	movwf	(??___xxtofl+1)^0,c
  2986   001A6A  0E00               	movlw	0
  2987   001A6C  140D               	andwf	(___xxtofl@arg+2)^0,w,c
  2988   001A6E  6E07               	movwf	(??___xxtofl+2)^0,c
  2989   001A70  0EFE               	movlw	254
  2990   001A72  140E               	andwf	(___xxtofl@arg+3)^0,w,c
  2991   001A74  6E08               	movwf	(??___xxtofl+3)^0,c
  2992   001A76  5005               	movf	??___xxtofl^0,w,c
  2993   001A78  1006               	iorwf	(??___xxtofl+1)^0,w,c
  2994   001A7A  1007               	iorwf	(??___xxtofl+2)^0,w,c
  2995   001A7C  1008               	iorwf	(??___xxtofl+3)^0,w,c
  2996   001A7E  A4D8               	btfss	status,2,c
  2997   001A80  EF44  F00D         	goto	u2021
  2998   001A84  EF46  F00D         	goto	u2020
  2999   001A88                     u2021:
  3000   001A88  EF29  F00D         	goto	l2251
  3001   001A8C                     u2020:
  3002   001A8C  EF54  F00D         	goto	l929
  3003   001A90                     l2255:
  3004   001A90  2A0A               	incf	___xxtofl@exp^0,f,c
  3005   001A92  0E01               	movlw	1
  3006   001A94  260B               	addwf	___xxtofl@arg^0,f,c
  3007   001A96  0E00               	movlw	0
  3008   001A98  220C               	addwfc	(___xxtofl@arg+1)^0,f,c
  3009   001A9A  220D               	addwfc	(___xxtofl@arg+2)^0,f,c
  3010   001A9C  220E               	addwfc	(___xxtofl@arg+3)^0,f,c
  3011   001A9E  90D8               	bcf	status,0,c
  3012   001AA0  320E               	rrcf	(___xxtofl@arg+3)^0,f,c
  3013   001AA2  320D               	rrcf	(___xxtofl@arg+2)^0,f,c
  3014   001AA4  320C               	rrcf	(___xxtofl@arg+1)^0,f,c
  3015   001AA6  320B               	rrcf	___xxtofl@arg^0,f,c
  3016   001AA8                     l929:
  3017   001AA8  0E00               	movlw	0
  3018   001AAA  140B               	andwf	___xxtofl@arg^0,w,c
  3019   001AAC  6E05               	movwf	??___xxtofl^0,c
  3020   001AAE  0E00               	movlw	0
  3021   001AB0  140C               	andwf	(___xxtofl@arg+1)^0,w,c
  3022   001AB2  6E06               	movwf	(??___xxtofl+1)^0,c
  3023   001AB4  0E00               	movlw	0
  3024   001AB6  140D               	andwf	(___xxtofl@arg+2)^0,w,c
  3025   001AB8  6E07               	movwf	(??___xxtofl+2)^0,c
  3026   001ABA  0EFF               	movlw	255
  3027   001ABC  140E               	andwf	(___xxtofl@arg+3)^0,w,c
  3028   001ABE  6E08               	movwf	(??___xxtofl+3)^0,c
  3029   001AC0  5005               	movf	??___xxtofl^0,w,c
  3030   001AC2  1006               	iorwf	(??___xxtofl+1)^0,w,c
  3031   001AC4  1007               	iorwf	(??___xxtofl+2)^0,w,c
  3032   001AC6  1008               	iorwf	(??___xxtofl+3)^0,w,c
  3033   001AC8  A4D8               	btfss	status,2,c
  3034   001ACA  EF69  F00D         	goto	u2031
  3035   001ACE  EF6B  F00D         	goto	u2030
  3036   001AD2                     u2031:
  3037   001AD2  EF48  F00D         	goto	l2255
  3038   001AD6                     u2030:
  3039   001AD6  EF73  F00D         	goto	l2263
  3040   001ADA                     l2261:
  3041   001ADA  060A               	decf	___xxtofl@exp^0,f,c
  3042   001ADC  90D8               	bcf	status,0,c
  3043   001ADE  360B               	rlcf	___xxtofl@arg^0,f,c
  3044   001AE0  360C               	rlcf	(___xxtofl@arg+1)^0,f,c
  3045   001AE2  360D               	rlcf	(___xxtofl@arg+2)^0,f,c
  3046   001AE4  360E               	rlcf	(___xxtofl@arg+3)^0,f,c
  3047   001AE6                     l2263:
  3048   001AE6  BE0D               	btfsc	(___xxtofl@arg+2)^0,7,c
  3049   001AE8  EF78  F00D         	goto	u2041
  3050   001AEC  EF7A  F00D         	goto	u2040
  3051   001AF0                     u2041:
  3052   001AF0  EF82  F00D         	goto	l936
  3053   001AF4                     u2040:
  3054   001AF4  0E02               	movlw	2
  3055   001AF6  600A               	cpfslt	___xxtofl@exp^0,c
  3056   001AF8  EF80  F00D         	goto	u2051
  3057   001AFC  EF82  F00D         	goto	u2050
  3058   001B00                     u2051:
  3059   001B00  EF6D  F00D         	goto	l2261
  3060   001B04                     u2050:
  3061   001B04                     l936:
  3062   001B04  B00A               	btfsc	___xxtofl@exp^0,0,c
  3063   001B06  EF87  F00D         	goto	u2061
  3064   001B0A  EF89  F00D         	goto	u2060
  3065   001B0E                     u2061:
  3066   001B0E  EF8A  F00D         	goto	l2269
  3067   001B12                     u2060:
  3068   001B12  9E0D               	bcf	(___xxtofl@arg+2)^0,7,c
  3069   001B14                     l2269:
  3070   001B14  90D8               	bcf	status,0,c
  3071   001B16  320A               	rrcf	___xxtofl@exp^0,f,c
  3072   001B18  C00A  F005         	movff	___xxtofl@exp,??___xxtofl
  3073   001B1C  6A06               	clrf	(??___xxtofl+1)^0,c
  3074   001B1E  6A07               	clrf	(??___xxtofl+2)^0,c
  3075   001B20  6A08               	clrf	(??___xxtofl+3)^0,c
  3076   001B22  C005  F008         	movff	??___xxtofl,??___xxtofl+3
  3077   001B26  6A07               	clrf	(??___xxtofl+2)^0,c
  3078   001B28  6A06               	clrf	(??___xxtofl+1)^0,c
  3079   001B2A  6A05               	clrf	??___xxtofl^0,c
  3080   001B2C  5005               	movf	??___xxtofl^0,w,c
  3081   001B2E  120B               	iorwf	___xxtofl@arg^0,f,c
  3082   001B30  5006               	movf	(??___xxtofl+1)^0,w,c
  3083   001B32  120C               	iorwf	(___xxtofl@arg+1)^0,f,c
  3084   001B34  5007               	movf	(??___xxtofl+2)^0,w,c
  3085   001B36  120D               	iorwf	(___xxtofl@arg+2)^0,f,c
  3086   001B38  5008               	movf	(??___xxtofl+3)^0,w,c
  3087   001B3A  120E               	iorwf	(___xxtofl@arg+3)^0,f,c
  3088   001B3C  5009               	movf	___xxtofl@sign^0,w,c
  3089   001B3E  B4D8               	btfsc	status,2,c
  3090   001B40  EFA4  F00D         	goto	u2071
  3091   001B44  EFA6  F00D         	goto	u2070
  3092   001B48                     u2071:
  3093   001B48  EFAE  F00D         	goto	l2279
  3094   001B4C                     u2070:
  3095   001B4C  BE04               	btfsc	(___xxtofl@val+3)^0,7,c
  3096   001B4E  EFAD  F00D         	goto	u2080
  3097   001B52  EFAB  F00D         	goto	u2081
  3098   001B56                     u2081:
  3099   001B56  EFAE  F00D         	goto	l2279
  3100   001B5A                     u2080:
  3101   001B5A  8E0E               	bsf	(___xxtofl@arg+3)^0,7,c
  3102   001B5C                     l2279:
  3103   001B5C  C00B  F001         	movff	___xxtofl@arg,?___xxtofl
  3104   001B60  C00C  F002         	movff	___xxtofl@arg+1,?___xxtofl+1
  3105   001B64  C00D  F003         	movff	___xxtofl@arg+2,?___xxtofl+2
  3106   001B68  C00E  F004         	movff	___xxtofl@arg+3,?___xxtofl+3
  3107   001B6C                     l925:
  3108   001B6C  0012               	return		;funcret
  3109   001B6E                     __end_of___xxtofl:
  3110                           	callstack 0
  3111                           
  3112 ;; *************** function ___fltol *****************
  3113 ;; Defined at:
  3114 ;;		line 43 in file "C:\Program Files\Microchip\xc8\v3.10\pic\sources\c99\common\fltol.c"
  3115 ;; Parameters:    Size  Location     Type
  3116 ;;  f1              4   25[COMRAM] unsigned char 
  3117 ;; Auto vars:     Size  Location     Type
  3118 ;;  exp1            1   34[COMRAM] unsigned char 
  3119 ;;  sign1           1   33[COMRAM] unsigned char 
  3120 ;; Return value:  Size  Location     Type
  3121 ;;                  4   25[COMRAM] long 
  3122 ;; Registers used:
  3123 ;;		wreg, status,2, status,0
  3124 ;; Tracked objects:
  3125 ;;		On entry : 0/0
  3126 ;;		On exit  : 0/0
  3127 ;;		Unchanged: 0/0
  3128 ;; Data sizes:     COMRAM   BANK0   BANK1   BANK2   BANK3   BANK4   BANK5   BANK6   BANK7   BANK8   BANK9  BANK10  BANK1
      +1  BANK12  BANK13  BANK14  BANK15
  3129 ;;      Params:         4       0       0       0       0       0       0       0       0       0       0       0       
      +0       0       0       0       0
  3130 ;;      Locals:         2       0       0       0       0       0       0       0       0       0       0       0       
      +0       0       0       0       0
  3131 ;;      Temps:          4       0       0       0       0       0       0       0       0       0       0       0       
      +0       0       0       0       0
  3132 ;;      Totals:        10       0       0       0       0       0       0       0       0       0       0       0       
      +0       0       0       0       0
  3133 ;;Total ram usage:       10 bytes
  3134 ;; Hardware stack levels used: 1
  3135 ;; This function calls:
  3136 ;;		Nothing
  3137 ;; This function is called by:
  3138 ;;		_dectohex
  3139 ;; This function uses a non-reentrant model
  3140 ;;
  3141                           
  3142                           	psect	text16
  3143   001D10                     __ptext16:
  3144                           	callstack 0
  3145   001D10                     ___fltol:
  3146                           	callstack 29
  3147   001D10  341C               	rlcf	(___fltol@f1+2)^0,w,c
  3148   001D12  341D               	rlcf	(___fltol@f1+3)^0,w,c
  3149   001D14  6E23               	movwf	___fltol@exp1^0,c
  3150   001D16  5023               	movf	___fltol@exp1^0,w,c
  3151   001D18  A4D8               	btfss	status,2,c
  3152   001D1A  EF91  F00E         	goto	u1921
  3153   001D1E  EF93  F00E         	goto	u1920
  3154   001D22                     u1921:
  3155   001D22  EF9D  F00E         	goto	l2199
  3156   001D26                     u1920:
  3157   001D26                     l2195:
  3158   001D26  0E00               	movlw	0
  3159   001D28  6E1A               	movwf	?___fltol^0,c
  3160   001D2A  0E00               	movlw	0
  3161   001D2C  6E1B               	movwf	(?___fltol+1)^0,c
  3162   001D2E  0E00               	movlw	0
  3163   001D30  6E1C               	movwf	(?___fltol+2)^0,c
  3164   001D32  0E00               	movlw	0
  3165   001D34  6E1D               	movwf	(?___fltol+3)^0,c
  3166   001D36  EF0A  F00F         	goto	l564
  3167   001D3A                     l2199:
  3168   001D3A  C01A  F01E         	movff	___fltol@f1,??___fltol
  3169   001D3E  C01B  F01F         	movff	___fltol@f1+1,??___fltol+1
  3170   001D42  C01C  F020         	movff	___fltol@f1+2,??___fltol+2
  3171   001D46  C01D  F021         	movff	___fltol@f1+3,??___fltol+3
  3172   001D4A  0E20               	movlw	32
  3173   001D4C  EFAD  F00E         	goto	u1930
  3174   001D50                     u1935:
  3175   001D50  90D8               	bcf	status,0,c
  3176   001D52  3221               	rrcf	(??___fltol+3)^0,f,c
  3177   001D54  3220               	rrcf	(??___fltol+2)^0,f,c
  3178   001D56  321F               	rrcf	(??___fltol+1)^0,f,c
  3179   001D58  321E               	rrcf	??___fltol^0,f,c
  3180   001D5A                     u1930:
  3181   001D5A  2EE8               	decfsz	wreg,f,c
  3182   001D5C  EFA8  F00E         	goto	u1935
  3183   001D60  501E               	movf	??___fltol^0,w,c
  3184   001D62  6E22               	movwf	___fltol@sign1^0,c
  3185   001D64  8E1C               	bsf	(___fltol@f1+2)^0,7,c
  3186   001D66  0EFF               	movlw	255
  3187   001D68  161A               	andwf	___fltol@f1^0,f,c
  3188   001D6A  0EFF               	movlw	255
  3189   001D6C  161B               	andwf	(___fltol@f1+1)^0,f,c
  3190   001D6E  0EFF               	movlw	255
  3191   001D70  161C               	andwf	(___fltol@f1+2)^0,f,c
  3192   001D72  0E00               	movlw	0
  3193   001D74  161D               	andwf	(___fltol@f1+3)^0,f,c
  3194   001D76  0E96               	movlw	150
  3195   001D78  5E23               	subwf	___fltol@exp1^0,f,c
  3196   001D7A  BE23               	btfsc	___fltol@exp1^0,7,c
  3197   001D7C  EFC4  F00E         	goto	u1940
  3198   001D80  EFC2  F00E         	goto	u1941
  3199   001D84                     u1941:
  3200   001D84  EFDA  F00E         	goto	l2219
  3201   001D88                     u1940:
  3202   001D88  5023               	movf	___fltol@exp1^0,w,c
  3203   001D8A  0A80               	xorlw	128
  3204   001D8C  0F97               	addlw	151
  3205   001D8E  B0D8               	btfsc	status,0,c
  3206   001D90  EFCC  F00E         	goto	u1951
  3207   001D94  EFCE  F00E         	goto	u1950
  3208   001D98                     u1951:
  3209   001D98  EFD0  F00E         	goto	l2215
  3210   001D9C                     u1950:
  3211   001D9C  EF93  F00E         	goto	l2195
  3212   001DA0                     l2215:
  3213   001DA0  90D8               	bcf	status,0,c
  3214   001DA2  321D               	rrcf	(___fltol@f1+3)^0,f,c
  3215   001DA4  321C               	rrcf	(___fltol@f1+2)^0,f,c
  3216   001DA6  321B               	rrcf	(___fltol@f1+1)^0,f,c
  3217   001DA8  321A               	rrcf	___fltol@f1^0,f,c
  3218   001DAA  3E23               	incfsz	___fltol@exp1^0,f,c
  3219   001DAC  EFD0  F00E         	goto	l2215
  3220   001DB0  EFF2  F00E         	goto	l2229
  3221   001DB4                     l2219:
  3222   001DB4  0E1F               	movlw	31
  3223   001DB6  6423               	cpfsgt	___fltol@exp1^0,c
  3224   001DB8  EFE0  F00E         	goto	u1961
  3225   001DBC  EFE2  F00E         	goto	u1960
  3226   001DC0                     u1961:
  3227   001DC0  EFEA  F00E         	goto	l2227
  3228   001DC4                     u1960:
  3229   001DC4  EF93  F00E         	goto	l2195
  3230   001DC8                     l2225:
  3231   001DC8  90D8               	bcf	status,0,c
  3232   001DCA  361A               	rlcf	___fltol@f1^0,f,c
  3233   001DCC  361B               	rlcf	(___fltol@f1+1)^0,f,c
  3234   001DCE  361C               	rlcf	(___fltol@f1+2)^0,f,c
  3235   001DD0  361D               	rlcf	(___fltol@f1+3)^0,f,c
  3236   001DD2  0623               	decf	___fltol@exp1^0,f,c
  3237   001DD4                     l2227:
  3238   001DD4  5023               	movf	___fltol@exp1^0,w,c
  3239   001DD6  A4D8               	btfss	status,2,c
  3240   001DD8  EFF0  F00E         	goto	u1971
  3241   001DDC  EFF2  F00E         	goto	u1970
  3242   001DE0                     u1971:
  3243   001DE0  EFE4  F00E         	goto	l2225
  3244   001DE4                     u1970:
  3245   001DE4                     l2229:
  3246   001DE4  5022               	movf	___fltol@sign1^0,w,c
  3247   001DE6  B4D8               	btfsc	status,2,c
  3248   001DE8  EFF8  F00E         	goto	u1981
  3249   001DEC  EFFA  F00E         	goto	u1980
  3250   001DF0                     u1981:
  3251   001DF0  EF02  F00F         	goto	l2233
  3252   001DF4                     u1980:
  3253   001DF4  1E1D               	comf	(___fltol@f1+3)^0,f,c
  3254   001DF6  1E1C               	comf	(___fltol@f1+2)^0,f,c
  3255   001DF8  1E1B               	comf	(___fltol@f1+1)^0,f,c
  3256   001DFA  6C1A               	negf	___fltol@f1^0,c
  3257   001DFC  0E00               	movlw	0
  3258   001DFE  221B               	addwfc	(___fltol@f1+1)^0,f,c
  3259   001E00  221C               	addwfc	(___fltol@f1+2)^0,f,c
  3260   001E02  221D               	addwfc	(___fltol@f1+3)^0,f,c
  3261   001E04                     l2233:
  3262   001E04  C01A  F01A         	movff	___fltol@f1,?___fltol
  3263   001E08  C01B  F01B         	movff	___fltol@f1+1,?___fltol+1
  3264   001E0C  C01C  F01C         	movff	___fltol@f1+2,?___fltol+2
  3265   001E10  C01D  F01D         	movff	___fltol@f1+3,?___fltol+3
  3266   001E14                     l564:
  3267   001E14  0012               	return		;funcret
  3268   001E16                     __end_of___fltol:
  3269                           	callstack 0
  3270                           
  3271 ;; *************** function ___flmul *****************
  3272 ;; Defined at:
  3273 ;;		line 8 in file "C:\Program Files\Microchip\xc8\v3.10\pic\sources\c99\common\sprcmul.c"
  3274 ;; Parameters:    Size  Location     Type
  3275 ;;  b               4    0[COMRAM] long 
  3276 ;;  a               4    4[COMRAM] long 
  3277 ;; Auto vars:     Size  Location     Type
  3278 ;;  prod            4   19[COMRAM] struct .
  3279 ;;  grs             4   13[COMRAM] unsigned long 
  3280 ;;  temp            2   23[COMRAM] struct .
  3281 ;;  bexp            1   18[COMRAM] unsigned char 
  3282 ;;  aexp            1   17[COMRAM] unsigned char 
  3283 ;;  sign            1   12[COMRAM] unsigned char 
  3284 ;; Return value:  Size  Location     Type
  3285 ;;                  4    0[COMRAM] unsigned char 
  3286 ;; Registers used:
  3287 ;;		wreg, status,2, status,0, prodl, prodh
  3288 ;; Tracked objects:
  3289 ;;		On entry : 0/0
  3290 ;;		On exit  : 0/0
  3291 ;;		Unchanged: 0/0
  3292 ;; Data sizes:     COMRAM   BANK0   BANK1   BANK2   BANK3   BANK4   BANK5   BANK6   BANK7   BANK8   BANK9  BANK10  BANK1
      +1  BANK12  BANK13  BANK14  BANK15
  3293 ;;      Params:         8       0       0       0       0       0       0       0       0       0       0       0       
      +0       0       0       0       0
  3294 ;;      Locals:        13       0       0       0       0       0       0       0       0       0       0       0       
      +0       0       0       0       0
  3295 ;;      Temps:          4       0       0       0       0       0       0       0       0       0       0       0       
      +0       0       0       0       0
  3296 ;;      Totals:        25       0       0       0       0       0       0       0       0       0       0       0       
      +0       0       0       0       0
  3297 ;;Total ram usage:       25 bytes
  3298 ;; Hardware stack levels used: 1
  3299 ;; This function calls:
  3300 ;;		Nothing
  3301 ;; This function is called by:
  3302 ;;		_dectohex
  3303 ;; This function uses a non-reentrant model
  3304 ;;
  3305                           
  3306                           	psect	text17
  3307   00101C                     __ptext17:
  3308                           	callstack 0
  3309   00101C                     ___flmul:
  3310                           	callstack 29
  3311   00101C  5004               	movf	(___flmul@b+3)^0,w,c
  3312   00101E  0B80               	andlw	128
  3313   001020  6E0D               	movwf	___flmul@sign^0,c
  3314   001022  5004               	movf	(___flmul@b+3)^0,w,c
  3315   001024  2404               	addwf	(___flmul@b+3)^0,w,c
  3316   001026  6E13               	movwf	___flmul@bexp^0,c
  3317   001028  AE03               	btfss	(___flmul@b+2)^0,7,c
  3318   00102A  EF19  F008         	goto	u1731
  3319   00102E  EF1B  F008         	goto	u1730
  3320   001032                     u1731:
  3321   001032  EF1C  F008         	goto	l2071
  3322   001036                     u1730:
  3323   001036  8013               	bsf	___flmul@bexp^0,0,c
  3324   001038                     l2071:
  3325   001038  5013               	movf	___flmul@bexp^0,w,c
  3326   00103A  B4D8               	btfsc	status,2,c
  3327   00103C  EF22  F008         	goto	u1741
  3328   001040  EF24  F008         	goto	u1740
  3329   001044                     u1741:
  3330   001044  EF37  F008         	goto	l2079
  3331   001048                     u1740:
  3332   001048  2813               	incf	___flmul@bexp^0,w,c
  3333   00104A  A4D8               	btfss	status,2,c
  3334   00104C  EF2A  F008         	goto	u1751
  3335   001050  EF2C  F008         	goto	u1750
  3336   001054                     u1751:
  3337   001054  EF34  F008         	goto	l2077
  3338   001058                     u1750:
  3339   001058  0E00               	movlw	0
  3340   00105A  6E01               	movwf	___flmul@b^0,c
  3341   00105C  0E00               	movlw	0
  3342   00105E  6E02               	movwf	(___flmul@b+1)^0,c
  3343   001060  0E00               	movlw	0
  3344   001062  6E03               	movwf	(___flmul@b+2)^0,c
  3345   001064  0E00               	movlw	0
  3346   001066  6E04               	movwf	(___flmul@b+3)^0,c
  3347   001068                     l2077:
  3348   001068  8E03               	bsf	(___flmul@b+2)^0,7,c
  3349   00106A  EF3F  F008         	goto	l2081
  3350   00106E                     l2079:
  3351   00106E  0E00               	movlw	0
  3352   001070  6E01               	movwf	___flmul@b^0,c
  3353   001072  0E00               	movlw	0
  3354   001074  6E02               	movwf	(___flmul@b+1)^0,c
  3355   001076  0E00               	movlw	0
  3356   001078  6E03               	movwf	(___flmul@b+2)^0,c
  3357   00107A  0E00               	movlw	0
  3358   00107C  6E04               	movwf	(___flmul@b+3)^0,c
  3359   00107E                     l2081:
  3360   00107E  5008               	movf	(___flmul@a+3)^0,w,c
  3361   001080  0B80               	andlw	128
  3362   001082  1A0D               	xorwf	___flmul@sign^0,f,c
  3363   001084  5008               	movf	(___flmul@a+3)^0,w,c
  3364   001086  2408               	addwf	(___flmul@a+3)^0,w,c
  3365   001088  6E12               	movwf	___flmul@aexp^0,c
  3366   00108A  AE07               	btfss	(___flmul@a+2)^0,7,c
  3367   00108C  EF4A  F008         	goto	u1761
  3368   001090  EF4C  F008         	goto	u1760
  3369   001094                     u1761:
  3370   001094  EF4D  F008         	goto	l2089
  3371   001098                     u1760:
  3372   001098  8012               	bsf	___flmul@aexp^0,0,c
  3373   00109A                     l2089:
  3374   00109A  5012               	movf	___flmul@aexp^0,w,c
  3375   00109C  B4D8               	btfsc	status,2,c
  3376   00109E  EF53  F008         	goto	u1771
  3377   0010A2  EF55  F008         	goto	u1770
  3378   0010A6                     u1771:
  3379   0010A6  EF68  F008         	goto	l2097
  3380   0010AA                     u1770:
  3381   0010AA  2812               	incf	___flmul@aexp^0,w,c
  3382   0010AC  A4D8               	btfss	status,2,c
  3383   0010AE  EF5B  F008         	goto	u1781
  3384   0010B2  EF5D  F008         	goto	u1780
  3385   0010B6                     u1781:
  3386   0010B6  EF65  F008         	goto	l2095
  3387   0010BA                     u1780:
  3388   0010BA  0E00               	movlw	0
  3389   0010BC  6E05               	movwf	___flmul@a^0,c
  3390   0010BE  0E00               	movlw	0
  3391   0010C0  6E06               	movwf	(___flmul@a+1)^0,c
  3392   0010C2  0E00               	movlw	0
  3393   0010C4  6E07               	movwf	(___flmul@a+2)^0,c
  3394   0010C6  0E00               	movlw	0
  3395   0010C8  6E08               	movwf	(___flmul@a+3)^0,c
  3396   0010CA                     l2095:
  3397   0010CA  8E07               	bsf	(___flmul@a+2)^0,7,c
  3398   0010CC  EF70  F008         	goto	l881
  3399   0010D0                     l2097:
  3400   0010D0  0E00               	movlw	0
  3401   0010D2  6E05               	movwf	___flmul@a^0,c
  3402   0010D4  0E00               	movlw	0
  3403   0010D6  6E06               	movwf	(___flmul@a+1)^0,c
  3404   0010D8  0E00               	movlw	0
  3405   0010DA  6E07               	movwf	(___flmul@a+2)^0,c
  3406   0010DC  0E00               	movlw	0
  3407   0010DE  6E08               	movwf	(___flmul@a+3)^0,c
  3408   0010E0                     l881:
  3409   0010E0  5012               	movf	___flmul@aexp^0,w,c
  3410   0010E2  B4D8               	btfsc	status,2,c
  3411   0010E4  EF76  F008         	goto	u1791
  3412   0010E8  EF78  F008         	goto	u1790
  3413   0010EC                     u1791:
  3414   0010EC  EF80  F008         	goto	l2101
  3415   0010F0                     u1790:
  3416   0010F0  5013               	movf	___flmul@bexp^0,w,c
  3417   0010F2  A4D8               	btfss	status,2,c
  3418   0010F4  EF7E  F008         	goto	u1801
  3419   0010F8  EF80  F008         	goto	u1800
  3420   0010FC                     u1801:
  3421   0010FC  EF8A  F008         	goto	l2105
  3422   001100                     u1800:
  3423   001100                     l2101:
  3424   001100  0E00               	movlw	0
  3425   001102  6E01               	movwf	?___flmul^0,c
  3426   001104  0E00               	movlw	0
  3427   001106  6E02               	movwf	(?___flmul+1)^0,c
  3428   001108  0E00               	movlw	0
  3429   00110A  6E03               	movwf	(?___flmul+2)^0,c
  3430   00110C  0E00               	movlw	0
  3431   00110E  6E04               	movwf	(?___flmul+3)^0,c
  3432   001110  EF20  F00A         	goto	l885
  3433   001114                     l2105:
  3434   001114  5007               	movf	(___flmul@a+2)^0,w,c
  3435   001116  0201               	mulwf	___flmul@b^0,c
  3436   001118  CFF3 F018          	movff	prodl,___flmul@temp
  3437   00111C  CFF4 F019          	movff	prodh,___flmul@temp+1
  3438   001120  5018               	movf	___flmul@temp^0,w,c
  3439   001122  6E0E               	movwf	___flmul@grs^0,c
  3440   001124  6A0F               	clrf	(___flmul@grs+1)^0,c
  3441   001126  6A10               	clrf	(___flmul@grs+2)^0,c
  3442   001128  6A11               	clrf	(___flmul@grs+3)^0,c
  3443   00112A  5019               	movf	(___flmul@temp+1)^0,w,c
  3444   00112C  6E14               	movwf	___flmul@prod^0,c
  3445   00112E  6A15               	clrf	(___flmul@prod+1)^0,c
  3446   001130  6A16               	clrf	(___flmul@prod+2)^0,c
  3447   001132  6A17               	clrf	(___flmul@prod+3)^0,c
  3448   001134  5006               	movf	(___flmul@a+1)^0,w,c
  3449   001136  0202               	mulwf	(___flmul@b+1)^0,c
  3450   001138  CFF3 F018          	movff	prodl,___flmul@temp
  3451   00113C  CFF4 F019          	movff	prodh,___flmul@temp+1
  3452   001140  5018               	movf	___flmul@temp^0,w,c
  3453   001142  260E               	addwf	___flmul@grs^0,f,c
  3454   001144  0E00               	movlw	0
  3455   001146  220F               	addwfc	(___flmul@grs+1)^0,f,c
  3456   001148  2210               	addwfc	(___flmul@grs+2)^0,f,c
  3457   00114A  2211               	addwfc	(___flmul@grs+3)^0,f,c
  3458   00114C  5019               	movf	(___flmul@temp+1)^0,w,c
  3459   00114E  2614               	addwf	___flmul@prod^0,f,c
  3460   001150  0E00               	movlw	0
  3461   001152  2215               	addwfc	(___flmul@prod+1)^0,f,c
  3462   001154  2216               	addwfc	(___flmul@prod+2)^0,f,c
  3463   001156  2217               	addwfc	(___flmul@prod+3)^0,f,c
  3464   001158  5005               	movf	___flmul@a^0,w,c
  3465   00115A  0203               	mulwf	(___flmul@b+2)^0,c
  3466   00115C  CFF3 F018          	movff	prodl,___flmul@temp
  3467   001160  CFF4 F019          	movff	prodh,___flmul@temp+1
  3468   001164  5018               	movf	___flmul@temp^0,w,c
  3469   001166  260E               	addwf	___flmul@grs^0,f,c
  3470   001168  0E00               	movlw	0
  3471   00116A  220F               	addwfc	(___flmul@grs+1)^0,f,c
  3472   00116C  2210               	addwfc	(___flmul@grs+2)^0,f,c
  3473   00116E  2211               	addwfc	(___flmul@grs+3)^0,f,c
  3474   001170  5019               	movf	(___flmul@temp+1)^0,w,c
  3475   001172  2614               	addwf	___flmul@prod^0,f,c
  3476   001174  0E00               	movlw	0
  3477   001176  2215               	addwfc	(___flmul@prod+1)^0,f,c
  3478   001178  2216               	addwfc	(___flmul@prod+2)^0,f,c
  3479   00117A  2217               	addwfc	(___flmul@prod+3)^0,f,c
  3480   00117C  C010  F011         	movff	___flmul@grs+2,___flmul@grs+3
  3481   001180  C00F  F010         	movff	___flmul@grs+1,___flmul@grs+2
  3482   001184  C00E  F00F         	movff	___flmul@grs,___flmul@grs+1
  3483   001188  6A0E               	clrf	___flmul@grs^0,c
  3484   00118A  5005               	movf	___flmul@a^0,w,c
  3485   00118C  0202               	mulwf	(___flmul@b+1)^0,c
  3486   00118E  CFF3 F018          	movff	prodl,___flmul@temp
  3487   001192  CFF4 F019          	movff	prodh,___flmul@temp+1
  3488   001196  5018               	movf	___flmul@temp^0,w,c
  3489   001198  260E               	addwf	___flmul@grs^0,f,c
  3490   00119A  5019               	movf	(___flmul@temp+1)^0,w,c
  3491   00119C  220F               	addwfc	(___flmul@grs+1)^0,f,c
  3492   00119E  0E00               	movlw	0
  3493   0011A0  2210               	addwfc	(___flmul@grs+2)^0,f,c
  3494   0011A2  0E00               	movlw	0
  3495   0011A4  2211               	addwfc	(___flmul@grs+3)^0,f,c
  3496   0011A6  5006               	movf	(___flmul@a+1)^0,w,c
  3497   0011A8  0201               	mulwf	___flmul@b^0,c
  3498   0011AA  CFF3 F018          	movff	prodl,___flmul@temp
  3499   0011AE  CFF4 F019          	movff	prodh,___flmul@temp+1
  3500   0011B2  5018               	movf	___flmul@temp^0,w,c
  3501   0011B4  260E               	addwf	___flmul@grs^0,f,c
  3502   0011B6  5019               	movf	(___flmul@temp+1)^0,w,c
  3503   0011B8  220F               	addwfc	(___flmul@grs+1)^0,f,c
  3504   0011BA  0E00               	movlw	0
  3505   0011BC  2210               	addwfc	(___flmul@grs+2)^0,f,c
  3506   0011BE  0E00               	movlw	0
  3507   0011C0  2211               	addwfc	(___flmul@grs+3)^0,f,c
  3508   0011C2  C010  F011         	movff	___flmul@grs+2,___flmul@grs+3
  3509   0011C6  C00F  F010         	movff	___flmul@grs+1,___flmul@grs+2
  3510   0011CA  C00E  F00F         	movff	___flmul@grs,___flmul@grs+1
  3511   0011CE  6A0E               	clrf	___flmul@grs^0,c
  3512   0011D0  5005               	movf	___flmul@a^0,w,c
  3513   0011D2  0201               	mulwf	___flmul@b^0,c
  3514   0011D4  CFF3 F018          	movff	prodl,___flmul@temp
  3515   0011D8  CFF4 F019          	movff	prodh,___flmul@temp+1
  3516   0011DC  5018               	movf	___flmul@temp^0,w,c
  3517   0011DE  260E               	addwf	___flmul@grs^0,f,c
  3518   0011E0  5019               	movf	(___flmul@temp+1)^0,w,c
  3519   0011E2  220F               	addwfc	(___flmul@grs+1)^0,f,c
  3520   0011E4  0E00               	movlw	0
  3521   0011E6  2210               	addwfc	(___flmul@grs+2)^0,f,c
  3522   0011E8  0E00               	movlw	0
  3523   0011EA  2211               	addwfc	(___flmul@grs+3)^0,f,c
  3524   0011EC  5007               	movf	(___flmul@a+2)^0,w,c
  3525   0011EE  0202               	mulwf	(___flmul@b+1)^0,c
  3526   0011F0  CFF3 F018          	movff	prodl,___flmul@temp
  3527   0011F4  CFF4 F019          	movff	prodh,___flmul@temp+1
  3528   0011F8  5018               	movf	___flmul@temp^0,w,c
  3529   0011FA  2614               	addwf	___flmul@prod^0,f,c
  3530   0011FC  5019               	movf	(___flmul@temp+1)^0,w,c
  3531   0011FE  2215               	addwfc	(___flmul@prod+1)^0,f,c
  3532   001200  0E00               	movlw	0
  3533   001202  2216               	addwfc	(___flmul@prod+2)^0,f,c
  3534   001204  0E00               	movlw	0
  3535   001206  2217               	addwfc	(___flmul@prod+3)^0,f,c
  3536   001208  5006               	movf	(___flmul@a+1)^0,w,c
  3537   00120A  0203               	mulwf	(___flmul@b+2)^0,c
  3538   00120C  CFF3 F018          	movff	prodl,___flmul@temp
  3539   001210  CFF4 F019          	movff	prodh,___flmul@temp+1
  3540   001214  5018               	movf	___flmul@temp^0,w,c
  3541   001216  2614               	addwf	___flmul@prod^0,f,c
  3542   001218  5019               	movf	(___flmul@temp+1)^0,w,c
  3543   00121A  2215               	addwfc	(___flmul@prod+1)^0,f,c
  3544   00121C  0E00               	movlw	0
  3545   00121E  2216               	addwfc	(___flmul@prod+2)^0,f,c
  3546   001220  0E00               	movlw	0
  3547   001222  2217               	addwfc	(___flmul@prod+3)^0,f,c
  3548   001224  5007               	movf	(___flmul@a+2)^0,w,c
  3549   001226  0203               	mulwf	(___flmul@b+2)^0,c
  3550   001228  CFF3 F018          	movff	prodl,___flmul@temp
  3551   00122C  CFF4 F019          	movff	prodh,___flmul@temp+1
  3552   001230  5018               	movf	___flmul@temp^0,w,c
  3553   001232  6E09               	movwf	??___flmul^0,c
  3554   001234  5019               	movf	(___flmul@temp+1)^0,w,c
  3555   001236  6E0A               	movwf	(??___flmul+1)^0,c
  3556   001238  6A0B               	clrf	(??___flmul+2)^0,c
  3557   00123A  6A0C               	clrf	(??___flmul+3)^0,c
  3558   00123C  C00B  F00C         	movff	??___flmul+2,??___flmul+3
  3559   001240  C00A  F00B         	movff	??___flmul+1,??___flmul+2
  3560   001244  C009  F00A         	movff	??___flmul,??___flmul+1
  3561   001248  6A09               	clrf	??___flmul^0,c
  3562   00124A  5009               	movf	??___flmul^0,w,c
  3563   00124C  2614               	addwf	___flmul@prod^0,f,c
  3564   00124E  500A               	movf	(??___flmul+1)^0,w,c
  3565   001250  2215               	addwfc	(___flmul@prod+1)^0,f,c
  3566   001252  500B               	movf	(??___flmul+2)^0,w,c
  3567   001254  2216               	addwfc	(___flmul@prod+2)^0,f,c
  3568   001256  500C               	movf	(??___flmul+3)^0,w,c
  3569   001258  2217               	addwfc	(___flmul@prod+3)^0,f,c
  3570   00125A  C00E  F009         	movff	___flmul@grs,??___flmul
  3571   00125E  C00F  F00A         	movff	___flmul@grs+1,??___flmul+1
  3572   001262  C010  F00B         	movff	___flmul@grs+2,??___flmul+2
  3573   001266  C011  F00C         	movff	___flmul@grs+3,??___flmul+3
  3574   00126A  0E19               	movlw	25
  3575   00126C  EF3D  F009         	goto	u1810
  3576   001270                     u1815:
  3577   001270  90D8               	bcf	status,0,c
  3578   001272  320C               	rrcf	(??___flmul+3)^0,f,c
  3579   001274  320B               	rrcf	(??___flmul+2)^0,f,c
  3580   001276  320A               	rrcf	(??___flmul+1)^0,f,c
  3581   001278  3209               	rrcf	??___flmul^0,f,c
  3582   00127A                     u1810:
  3583   00127A  2EE8               	decfsz	wreg,f,c
  3584   00127C  EF38  F009         	goto	u1815
  3585   001280  5009               	movf	??___flmul^0,w,c
  3586   001282  2614               	addwf	___flmul@prod^0,f,c
  3587   001284  500A               	movf	(??___flmul+1)^0,w,c
  3588   001286  2215               	addwfc	(___flmul@prod+1)^0,f,c
  3589   001288  500B               	movf	(??___flmul+2)^0,w,c
  3590   00128A  2216               	addwfc	(___flmul@prod+2)^0,f,c
  3591   00128C  500C               	movf	(??___flmul+3)^0,w,c
  3592   00128E  2217               	addwfc	(___flmul@prod+3)^0,f,c
  3593   001290  C010  F011         	movff	___flmul@grs+2,___flmul@grs+3
  3594   001294  C00F  F010         	movff	___flmul@grs+1,___flmul@grs+2
  3595   001298  C00E  F00F         	movff	___flmul@grs,___flmul@grs+1
  3596   00129C  6A0E               	clrf	___flmul@grs^0,c
  3597   00129E  5012               	movf	___flmul@aexp^0,w,c
  3598   0012A0  C013  F009         	movff	___flmul@bexp,??___flmul
  3599   0012A4  6A0A               	clrf	(??___flmul+1)^0,c
  3600   0012A6  2609               	addwf	??___flmul^0,f,c
  3601   0012A8  0E00               	movlw	0
  3602   0012AA  220A               	addwfc	(??___flmul+1)^0,f,c
  3603   0012AC  0E82               	movlw	130
  3604   0012AE  2409               	addwf	??___flmul^0,w,c
  3605   0012B0  6E18               	movwf	___flmul@temp^0,c
  3606   0012B2  0EFF               	movlw	255
  3607   0012B4  200A               	addwfc	(??___flmul+1)^0,w,c
  3608   0012B6  6E19               	movwf	(___flmul@temp+1)^0,c
  3609   0012B8  EF73  F009         	goto	l2153
  3610   0012BC                     l2147:
  3611   0012BC  90D8               	bcf	status,0,c
  3612   0012BE  3614               	rlcf	___flmul@prod^0,f,c
  3613   0012C0  3615               	rlcf	(___flmul@prod+1)^0,f,c
  3614   0012C2  3616               	rlcf	(___flmul@prod+2)^0,f,c
  3615   0012C4  3617               	rlcf	(___flmul@prod+3)^0,f,c
  3616   0012C6  AE11               	btfss	(___flmul@grs+3)^0,7,c
  3617   0012C8  EF68  F009         	goto	u1821
  3618   0012CC  EF6A  F009         	goto	u1820
  3619   0012D0                     u1821:
  3620   0012D0  EF6B  F009         	goto	l888
  3621   0012D4                     u1820:
  3622   0012D4  8014               	bsf	___flmul@prod^0,0,c
  3623   0012D6                     l888:
  3624   0012D6  90D8               	bcf	status,0,c
  3625   0012D8  360E               	rlcf	___flmul@grs^0,f,c
  3626   0012DA  360F               	rlcf	(___flmul@grs+1)^0,f,c
  3627   0012DC  3610               	rlcf	(___flmul@grs+2)^0,f,c
  3628   0012DE  3611               	rlcf	(___flmul@grs+3)^0,f,c
  3629   0012E0  0618               	decf	___flmul@temp^0,f,c
  3630   0012E2  A0D8               	btfss	status,0,c
  3631   0012E4  0619               	decf	(___flmul@temp+1)^0,f,c
  3632   0012E6                     l2153:
  3633   0012E6  AE16               	btfss	(___flmul@prod+2)^0,7,c
  3634   0012E8  EF78  F009         	goto	u1831
  3635   0012EC  EF7A  F009         	goto	u1830
  3636   0012F0                     u1831:
  3637   0012F0  EF5E  F009         	goto	l2147
  3638   0012F4                     u1830:
  3639   0012F4  6A12               	clrf	___flmul@aexp^0,c
  3640   0012F6  AE11               	btfss	(___flmul@grs+3)^0,7,c
  3641   0012F8  EF80  F009         	goto	u1841
  3642   0012FC  EF82  F009         	goto	u1840
  3643   001300                     u1841:
  3644   001300  EFA6  F009         	goto	l890
  3645   001304                     u1840:
  3646   001304  0EFF               	movlw	255
  3647   001306  140E               	andwf	___flmul@grs^0,w,c
  3648   001308  6E09               	movwf	??___flmul^0,c
  3649   00130A  0EFF               	movlw	255
  3650   00130C  140F               	andwf	(___flmul@grs+1)^0,w,c
  3651   00130E  6E0A               	movwf	(??___flmul+1)^0,c
  3652   001310  0EFF               	movlw	255
  3653   001312  1410               	andwf	(___flmul@grs+2)^0,w,c
  3654   001314  6E0B               	movwf	(??___flmul+2)^0,c
  3655   001316  0E7F               	movlw	127
  3656   001318  1411               	andwf	(___flmul@grs+3)^0,w,c
  3657   00131A  6E0C               	movwf	(??___flmul+3)^0,c
  3658   00131C  5009               	movf	??___flmul^0,w,c
  3659   00131E  100A               	iorwf	(??___flmul+1)^0,w,c
  3660   001320  100B               	iorwf	(??___flmul+2)^0,w,c
  3661   001322  100C               	iorwf	(??___flmul+3)^0,w,c
  3662   001324  B4D8               	btfsc	status,2,c
  3663   001326  EF97  F009         	goto	u1851
  3664   00132A  EF99  F009         	goto	u1850
  3665   00132E                     u1851:
  3666   00132E  EF9D  F009         	goto	l891
  3667   001332                     u1850:
  3668   001332                     l2157:
  3669   001332  0E01               	movlw	1
  3670   001334  6E12               	movwf	___flmul@aexp^0,c
  3671   001336  EFA6  F009         	goto	l890
  3672   00133A                     l891:
  3673   00133A  A014               	btfss	___flmul@prod^0,0,c
  3674   00133C  EFA2  F009         	goto	u1861
  3675   001340  EFA4  F009         	goto	u1860
  3676   001344                     u1861:
  3677   001344  EFA6  F009         	goto	l890
  3678   001348                     u1860:
  3679   001348  EF99  F009         	goto	l2157
  3680   00134C                     l890:
  3681   00134C  5012               	movf	___flmul@aexp^0,w,c
  3682   00134E  B4D8               	btfsc	status,2,c
  3683   001350  EFAC  F009         	goto	u1871
  3684   001354  EFAE  F009         	goto	u1870
  3685   001358                     u1871:
  3686   001358  EFD2  F009         	goto	l2169
  3687   00135C                     u1870:
  3688   00135C  0E01               	movlw	1
  3689   00135E  2614               	addwf	___flmul@prod^0,f,c
  3690   001360  0E00               	movlw	0
  3691   001362  2215               	addwfc	(___flmul@prod+1)^0,f,c
  3692   001364  2216               	addwfc	(___flmul@prod+2)^0,f,c
  3693   001366  2217               	addwfc	(___flmul@prod+3)^0,f,c
  3694   001368  A017               	btfss	(___flmul@prod+3)^0,0,c
  3695   00136A  EFB9  F009         	goto	u1881
  3696   00136E  EFBB  F009         	goto	u1880
  3697   001372                     u1881:
  3698   001372  EFD2  F009         	goto	l2169
  3699   001376                     u1880:
  3700   001376  C014  F009         	movff	___flmul@prod,??___flmul
  3701   00137A  C015  F00A         	movff	___flmul@prod+1,??___flmul+1
  3702   00137E  C016  F00B         	movff	___flmul@prod+2,??___flmul+2
  3703   001382  C017  F00C         	movff	___flmul@prod+3,??___flmul+3
  3704   001386  340C               	rlcf	(??___flmul+3)^0,w,c
  3705   001388  320C               	rrcf	(??___flmul+3)^0,f,c
  3706   00138A  320B               	rrcf	(??___flmul+2)^0,f,c
  3707   00138C  320A               	rrcf	(??___flmul+1)^0,f,c
  3708   00138E  3209               	rrcf	??___flmul^0,f,c
  3709   001390  C009  F014         	movff	??___flmul,___flmul@prod
  3710   001394  C00A  F015         	movff	??___flmul+1,___flmul@prod+1
  3711   001398  C00B  F016         	movff	??___flmul+2,___flmul@prod+2
  3712   00139C  C00C  F017         	movff	??___flmul+3,___flmul@prod+3
  3713   0013A0  4A18               	infsnz	___flmul@temp^0,f,c
  3714   0013A2  2A19               	incf	(___flmul@temp+1)^0,f,c
  3715   0013A4                     l2169:
  3716   0013A4  BE19               	btfsc	(___flmul@temp+1)^0,7,c
  3717   0013A6  EFDD  F009         	goto	u1891
  3718   0013AA  5019               	movf	(___flmul@temp+1)^0,w,c
  3719   0013AC  E108               	bnz	u1890
  3720   0013AE  2818               	incf	___flmul@temp^0,w,c
  3721   0013B0  A0D8               	btfss	status,0,c
  3722   0013B2  EFDD  F009         	goto	u1891
  3723   0013B6  EFDF  F009         	goto	u1890
  3724   0013BA                     u1891:
  3725   0013BA  EFE9  F009         	goto	l2173
  3726   0013BE                     u1890:
  3727   0013BE  0E00               	movlw	0
  3728   0013C0  6E14               	movwf	___flmul@prod^0,c
  3729   0013C2  0E00               	movlw	0
  3730   0013C4  6E15               	movwf	(___flmul@prod+1)^0,c
  3731   0013C6  0E80               	movlw	128
  3732   0013C8  6E16               	movwf	(___flmul@prod+2)^0,c
  3733   0013CA  0E7F               	movlw	127
  3734   0013CC  6E17               	movwf	(___flmul@prod+3)^0,c
  3735   0013CE  EF16  F00A         	goto	l2187
  3736   0013D2                     l2173:
  3737   0013D2  BE19               	btfsc	(___flmul@temp+1)^0,7,c
  3738   0013D4  EFF6  F009         	goto	u1900
  3739   0013D8  5019               	movf	(___flmul@temp+1)^0,w,c
  3740   0013DA  E106               	bnz	u1901
  3741   0013DC  0418               	decf	___flmul@temp^0,w,c
  3742   0013DE  B0D8               	btfsc	status,0,c
  3743   0013E0  EFF4  F009         	goto	u1901
  3744   0013E4  EFF6  F009         	goto	u1900
  3745   0013E8                     u1901:
  3746   0013E8  EF01  F00A         	goto	l898
  3747   0013EC                     u1900:
  3748   0013EC  0E00               	movlw	0
  3749   0013EE  6E14               	movwf	___flmul@prod^0,c
  3750   0013F0  0E00               	movlw	0
  3751   0013F2  6E15               	movwf	(___flmul@prod+1)^0,c
  3752   0013F4  0E00               	movlw	0
  3753   0013F6  6E16               	movwf	(___flmul@prod+2)^0,c
  3754   0013F8  0E00               	movlw	0
  3755   0013FA  6E17               	movwf	(___flmul@prod+3)^0,c
  3756   0013FC  6A0D               	clrf	___flmul@sign^0,c
  3757   0013FE  EF16  F00A         	goto	l2187
  3758   001402                     l898:
  3759   001402  C018  F013         	movff	___flmul@temp,___flmul@bexp
  3760   001406  0EFF               	movlw	255
  3761   001408  1614               	andwf	___flmul@prod^0,f,c
  3762   00140A  0EFF               	movlw	255
  3763   00140C  1615               	andwf	(___flmul@prod+1)^0,f,c
  3764   00140E  0E7F               	movlw	127
  3765   001410  1616               	andwf	(___flmul@prod+2)^0,f,c
  3766   001412  0E00               	movlw	0
  3767   001414  1617               	andwf	(___flmul@prod+3)^0,f,c
  3768   001416  A013               	btfss	___flmul@bexp^0,0,c
  3769   001418  EF10  F00A         	goto	u1911
  3770   00141C  EF12  F00A         	goto	u1910
  3771   001420                     u1911:
  3772   001420  EF13  F00A         	goto	l2185
  3773   001424                     u1910:
  3774   001424  8E16               	bsf	(___flmul@prod+2)^0,7,c
  3775   001426                     l2185:
  3776   001426  90D8               	bcf	status,0,c
  3777   001428  3013               	rrcf	___flmul@bexp^0,w,c
  3778   00142A  6E17               	movwf	(___flmul@prod+3)^0,c
  3779   00142C                     l2187:
  3780   00142C  500D               	movf	___flmul@sign^0,w,c
  3781   00142E  1217               	iorwf	(___flmul@prod+3)^0,f,c
  3782   001430  C014  F001         	movff	___flmul@prod,?___flmul
  3783   001434  C015  F002         	movff	___flmul@prod+1,?___flmul+1
  3784   001438  C016  F003         	movff	___flmul@prod+2,?___flmul+2
  3785   00143C  C017  F004         	movff	___flmul@prod+3,?___flmul+3
  3786   001440                     l885:
  3787   001440  0012               	return		;funcret
  3788   001442                     __end_of___flmul:
  3789                           	callstack 0
  3790                           
  3791 ;; *************** function ___fldiv *****************
  3792 ;; Defined at:
  3793 ;;		line 11 in file "C:\Program Files\Microchip\xc8\v3.10\pic\sources\c99\common\sprcdiv.c"
  3794 ;; Parameters:    Size  Location     Type
  3795 ;;  b               4   14[COMRAM] unsigned char 
  3796 ;;  a               4   18[COMRAM] unsigned char 
  3797 ;; Auto vars:     Size  Location     Type
  3798 ;;  grs             4   33[COMRAM] unsigned long 
  3799 ;;  rem             4   26[COMRAM] unsigned long 
  3800 ;;  new_exp         2   31[COMRAM] short 
  3801 ;;  aexp            1   38[COMRAM] unsigned char 
  3802 ;;  bexp            1   37[COMRAM] unsigned char 
  3803 ;;  sign            1   30[COMRAM] unsigned char 
  3804 ;; Return value:  Size  Location     Type
  3805 ;;                  4   14[COMRAM] unsigned char 
  3806 ;; Registers used:
  3807 ;;		wreg, status,2, status,0
  3808 ;; Tracked objects:
  3809 ;;		On entry : 0/0
  3810 ;;		On exit  : 0/0
  3811 ;;		Unchanged: 0/0
  3812 ;; Data sizes:     COMRAM   BANK0   BANK1   BANK2   BANK3   BANK4   BANK5   BANK6   BANK7   BANK8   BANK9  BANK10  BANK1
      +1  BANK12  BANK13  BANK14  BANK15
  3813 ;;      Params:         8       0       0       0       0       0       0       0       0       0       0       0       
      +0       0       0       0       0
  3814 ;;      Locals:        13       0       0       0       0       0       0       0       0       0       0       0       
      +0       0       0       0       0
  3815 ;;      Temps:          4       0       0       0       0       0       0       0       0       0       0       0       
      +0       0       0       0       0
  3816 ;;      Totals:        25       0       0       0       0       0       0       0       0       0       0       0       
      +0       0       0       0       0
  3817 ;;Total ram usage:       25 bytes
  3818 ;; Hardware stack levels used: 1
  3819 ;; This function calls:
  3820 ;;		Nothing
  3821 ;; This function is called by:
  3822 ;;		_dectohex
  3823 ;; This function uses a non-reentrant model
  3824 ;;
  3825                           
  3826                           	psect	text18
  3827   001442                     __ptext18:
  3828                           	callstack 0
  3829   001442                     ___fldiv:
  3830                           	callstack 29
  3831   001442  5012               	movf	(___fldiv@b+3)^0,w,c
  3832   001444  0B80               	andlw	128
  3833   001446  6E1F               	movwf	___fldiv@sign^0,c
  3834   001448  5012               	movf	(___fldiv@b+3)^0,w,c
  3835   00144A  2412               	addwf	(___fldiv@b+3)^0,w,c
  3836   00144C  6E26               	movwf	___fldiv@bexp^0,c
  3837   00144E  AE11               	btfss	(___fldiv@b+2)^0,7,c
  3838   001450  EF2C  F00A         	goto	u1501
  3839   001454  EF2E  F00A         	goto	u1500
  3840   001458                     u1501:
  3841   001458  EF2F  F00A         	goto	l1935
  3842   00145C                     u1500:
  3843   00145C  8026               	bsf	___fldiv@bexp^0,0,c
  3844   00145E                     l1935:
  3845   00145E  5026               	movf	___fldiv@bexp^0,w,c
  3846   001460  B4D8               	btfsc	status,2,c
  3847   001462  EF35  F00A         	goto	u1511
  3848   001466  EF37  F00A         	goto	u1510
  3849   00146A                     u1511:
  3850   00146A  EF4B  F00A         	goto	l1945
  3851   00146E                     u1510:
  3852   00146E  2826               	incf	___fldiv@bexp^0,w,c
  3853   001470  A4D8               	btfss	status,2,c
  3854   001472  EF3D  F00A         	goto	u1521
  3855   001476  EF3F  F00A         	goto	u1520
  3856   00147A                     u1521:
  3857   00147A  EF47  F00A         	goto	l1941
  3858   00147E                     u1520:
  3859   00147E  0E00               	movlw	0
  3860   001480  6E0F               	movwf	___fldiv@b^0,c
  3861   001482  0E00               	movlw	0
  3862   001484  6E10               	movwf	(___fldiv@b+1)^0,c
  3863   001486  0E00               	movlw	0
  3864   001488  6E11               	movwf	(___fldiv@b+2)^0,c
  3865   00148A  0E00               	movlw	0
  3866   00148C  6E12               	movwf	(___fldiv@b+3)^0,c
  3867   00148E                     l1941:
  3868   00148E  8E11               	bsf	(___fldiv@b+2)^0,7,c
  3869   001490  6A12               	clrf	(___fldiv@b+3)^0,c
  3870   001492  EF53  F00A         	goto	l1947
  3871   001496                     l1945:
  3872   001496  0E00               	movlw	0
  3873   001498  6E0F               	movwf	___fldiv@b^0,c
  3874   00149A  0E00               	movlw	0
  3875   00149C  6E10               	movwf	(___fldiv@b+1)^0,c
  3876   00149E  0E00               	movlw	0
  3877   0014A0  6E11               	movwf	(___fldiv@b+2)^0,c
  3878   0014A2  0E00               	movlw	0
  3879   0014A4  6E12               	movwf	(___fldiv@b+3)^0,c
  3880   0014A6                     l1947:
  3881   0014A6  5016               	movf	(___fldiv@a+3)^0,w,c
  3882   0014A8  0B80               	andlw	128
  3883   0014AA  1A1F               	xorwf	___fldiv@sign^0,f,c
  3884   0014AC  5016               	movf	(___fldiv@a+3)^0,w,c
  3885   0014AE  2416               	addwf	(___fldiv@a+3)^0,w,c
  3886   0014B0  6E27               	movwf	___fldiv@aexp^0,c
  3887   0014B2  AE15               	btfss	(___fldiv@a+2)^0,7,c
  3888   0014B4  EF5E  F00A         	goto	u1531
  3889   0014B8  EF60  F00A         	goto	u1530
  3890   0014BC                     u1531:
  3891   0014BC  EF61  F00A         	goto	l1955
  3892   0014C0                     u1530:
  3893   0014C0  8027               	bsf	___fldiv@aexp^0,0,c
  3894   0014C2                     l1955:
  3895   0014C2  5027               	movf	___fldiv@aexp^0,w,c
  3896   0014C4  B4D8               	btfsc	status,2,c
  3897   0014C6  EF67  F00A         	goto	u1541
  3898   0014CA  EF69  F00A         	goto	u1540
  3899   0014CE                     u1541:
  3900   0014CE  EF7D  F00A         	goto	l1965
  3901   0014D2                     u1540:
  3902   0014D2  2827               	incf	___fldiv@aexp^0,w,c
  3903   0014D4  A4D8               	btfss	status,2,c
  3904   0014D6  EF6F  F00A         	goto	u1551
  3905   0014DA  EF71  F00A         	goto	u1550
  3906   0014DE                     u1551:
  3907   0014DE  EF79  F00A         	goto	l1961
  3908   0014E2                     u1550:
  3909   0014E2  0E00               	movlw	0
  3910   0014E4  6E13               	movwf	___fldiv@a^0,c
  3911   0014E6  0E00               	movlw	0
  3912   0014E8  6E14               	movwf	(___fldiv@a+1)^0,c
  3913   0014EA  0E00               	movlw	0
  3914   0014EC  6E15               	movwf	(___fldiv@a+2)^0,c
  3915   0014EE  0E00               	movlw	0
  3916   0014F0  6E16               	movwf	(___fldiv@a+3)^0,c
  3917   0014F2                     l1961:
  3918   0014F2  8E15               	bsf	(___fldiv@a+2)^0,7,c
  3919   0014F4  6A16               	clrf	(___fldiv@a+3)^0,c
  3920   0014F6  EF85  F00A         	goto	l1967
  3921   0014FA                     l1965:
  3922   0014FA  0E00               	movlw	0
  3923   0014FC  6E13               	movwf	___fldiv@a^0,c
  3924   0014FE  0E00               	movlw	0
  3925   001500  6E14               	movwf	(___fldiv@a+1)^0,c
  3926   001502  0E00               	movlw	0
  3927   001504  6E15               	movwf	(___fldiv@a+2)^0,c
  3928   001506  0E00               	movlw	0
  3929   001508  6E16               	movwf	(___fldiv@a+3)^0,c
  3930   00150A                     l1967:
  3931   00150A  5013               	movf	___fldiv@a^0,w,c
  3932   00150C  1014               	iorwf	(___fldiv@a+1)^0,w,c
  3933   00150E  1015               	iorwf	(___fldiv@a+2)^0,w,c
  3934   001510  1016               	iorwf	(___fldiv@a+3)^0,w,c
  3935   001512  A4D8               	btfss	status,2,c
  3936   001514  EF8E  F00A         	goto	u1561
  3937   001518  EF90  F00A         	goto	u1560
  3938   00151C                     u1561:
  3939   00151C  EFA8  F00A         	goto	l1979
  3940   001520                     u1560:
  3941   001520  0E00               	movlw	0
  3942   001522  6E0F               	movwf	___fldiv@b^0,c
  3943   001524  0E00               	movlw	0
  3944   001526  6E10               	movwf	(___fldiv@b+1)^0,c
  3945   001528  0E00               	movlw	0
  3946   00152A  6E11               	movwf	(___fldiv@b+2)^0,c
  3947   00152C  0E00               	movlw	0
  3948   00152E  6E12               	movwf	(___fldiv@b+3)^0,c
  3949   001530  0E80               	movlw	128
  3950   001532  1211               	iorwf	(___fldiv@b+2)^0,f,c
  3951   001534  0E7F               	movlw	127
  3952   001536  1212               	iorwf	(___fldiv@b+3)^0,f,c
  3953   001538                     l1973:
  3954   001538  501F               	movf	___fldiv@sign^0,w,c
  3955   00153A  1212               	iorwf	(___fldiv@b+3)^0,f,c
  3956   00153C  C00F  F00F         	movff	___fldiv@b,?___fldiv
  3957   001540  C010  F010         	movff	___fldiv@b+1,?___fldiv+1
  3958   001544  C011  F011         	movff	___fldiv@b+2,?___fldiv+2
  3959   001548  C012  F012         	movff	___fldiv@b+3,?___fldiv+3
  3960   00154C  EFE7  F00B         	goto	l849
  3961   001550                     l1979:
  3962   001550  5026               	movf	___fldiv@bexp^0,w,c
  3963   001552  A4D8               	btfss	status,2,c
  3964   001554  EFAE  F00A         	goto	u1571
  3965   001558  EFB0  F00A         	goto	u1570
  3966   00155C                     u1571:
  3967   00155C  EFBA  F00A         	goto	l1987
  3968   001560                     u1570:
  3969   001560  0E00               	movlw	0
  3970   001562  6E0F               	movwf	?___fldiv^0,c
  3971   001564  0E00               	movlw	0
  3972   001566  6E10               	movwf	(?___fldiv+1)^0,c
  3973   001568  0E00               	movlw	0
  3974   00156A  6E11               	movwf	(?___fldiv+2)^0,c
  3975   00156C  0E00               	movlw	0
  3976   00156E  6E12               	movwf	(?___fldiv+3)^0,c
  3977   001570  EFE7  F00B         	goto	l849
  3978   001574                     l1987:
  3979   001574  5027               	movf	___fldiv@aexp^0,w,c
  3980   001576  C026  F017         	movff	___fldiv@bexp,??___fldiv
  3981   00157A  6A18               	clrf	(??___fldiv+1)^0,c
  3982   00157C  5E17               	subwf	??___fldiv^0,f,c
  3983   00157E  0E00               	movlw	0
  3984   001580  5A18               	subwfb	(??___fldiv+1)^0,f,c
  3985   001582  0E7F               	movlw	127
  3986   001584  2417               	addwf	??___fldiv^0,w,c
  3987   001586  6E20               	movwf	___fldiv@new_exp^0,c
  3988   001588  0E00               	movlw	0
  3989   00158A  2018               	addwfc	(??___fldiv+1)^0,w,c
  3990   00158C  6E21               	movwf	(___fldiv@new_exp+1)^0,c
  3991   00158E  C00F  F01B         	movff	___fldiv@b,___fldiv@rem
  3992   001592  C010  F01C         	movff	___fldiv@b+1,___fldiv@rem+1
  3993   001596  C011  F01D         	movff	___fldiv@b+2,___fldiv@rem+2
  3994   00159A  C012  F01E         	movff	___fldiv@b+3,___fldiv@rem+3
  3995   00159E  0E00               	movlw	0
  3996   0015A0  6E0F               	movwf	___fldiv@b^0,c
  3997   0015A2  0E00               	movlw	0
  3998   0015A4  6E10               	movwf	(___fldiv@b+1)^0,c
  3999   0015A6  0E00               	movlw	0
  4000   0015A8  6E11               	movwf	(___fldiv@b+2)^0,c
  4001   0015AA  0E00               	movlw	0
  4002   0015AC  6E12               	movwf	(___fldiv@b+3)^0,c
  4003   0015AE  0E00               	movlw	0
  4004   0015B0  6E22               	movwf	___fldiv@grs^0,c
  4005   0015B2  0E00               	movlw	0
  4006   0015B4  6E23               	movwf	(___fldiv@grs+1)^0,c
  4007   0015B6  0E00               	movlw	0
  4008   0015B8  6E24               	movwf	(___fldiv@grs+2)^0,c
  4009   0015BA  0E00               	movlw	0
  4010   0015BC  6E25               	movwf	(___fldiv@grs+3)^0,c
  4011   0015BE  6A27               	clrf	___fldiv@aexp^0,c
  4012   0015C0  EF1A  F00B         	goto	l851
  4013   0015C4                     l1997:
  4014   0015C4  5027               	movf	___fldiv@aexp^0,w,c
  4015   0015C6  B4D8               	btfsc	status,2,c
  4016   0015C8  EFE8  F00A         	goto	u1581
  4017   0015CC  EFEA  F00A         	goto	u1580
  4018   0015D0                     u1581:
  4019   0015D0  EF01  F00B         	goto	l2005
  4020   0015D4                     u1580:
  4021   0015D4  90D8               	bcf	status,0,c
  4022   0015D6  361B               	rlcf	___fldiv@rem^0,f,c
  4023   0015D8  361C               	rlcf	(___fldiv@rem+1)^0,f,c
  4024   0015DA  361D               	rlcf	(___fldiv@rem+2)^0,f,c
  4025   0015DC  361E               	rlcf	(___fldiv@rem+3)^0,f,c
  4026   0015DE  90D8               	bcf	status,0,c
  4027   0015E0  360F               	rlcf	___fldiv@b^0,f,c
  4028   0015E2  3610               	rlcf	(___fldiv@b+1)^0,f,c
  4029   0015E4  3611               	rlcf	(___fldiv@b+2)^0,f,c
  4030   0015E6  3612               	rlcf	(___fldiv@b+3)^0,f,c
  4031   0015E8  AE25               	btfss	(___fldiv@grs+3)^0,7,c
  4032   0015EA  EFF9  F00A         	goto	u1591
  4033   0015EE  EFFB  F00A         	goto	u1590
  4034   0015F2                     u1591:
  4035   0015F2  EFFC  F00A         	goto	l854
  4036   0015F6                     u1590:
  4037   0015F6  800F               	bsf	___fldiv@b^0,0,c
  4038   0015F8                     l854:
  4039   0015F8  90D8               	bcf	status,0,c
  4040   0015FA  3622               	rlcf	___fldiv@grs^0,f,c
  4041   0015FC  3623               	rlcf	(___fldiv@grs+1)^0,f,c
  4042   0015FE  3624               	rlcf	(___fldiv@grs+2)^0,f,c
  4043   001600  3625               	rlcf	(___fldiv@grs+3)^0,f,c
  4044   001602                     l2005:
  4045   001602  5013               	movf	___fldiv@a^0,w,c
  4046   001604  5C1B               	subwf	___fldiv@rem^0,w,c
  4047   001606  5014               	movf	(___fldiv@a+1)^0,w,c
  4048   001608  581C               	subwfb	(___fldiv@rem+1)^0,w,c
  4049   00160A  5015               	movf	(___fldiv@a+2)^0,w,c
  4050   00160C  581D               	subwfb	(___fldiv@rem+2)^0,w,c
  4051   00160E  5016               	movf	(___fldiv@a+3)^0,w,c
  4052   001610  581E               	subwfb	(___fldiv@rem+3)^0,w,c
  4053   001612  A0D8               	btfss	status,0,c
  4054   001614  EF0E  F00B         	goto	u1601
  4055   001618  EF10  F00B         	goto	u1600
  4056   00161C                     u1601:
  4057   00161C  EF19  F00B         	goto	l2011
  4058   001620                     u1600:
  4059   001620  8C25               	bsf	(___fldiv@grs+3)^0,6,c
  4060   001622  5013               	movf	___fldiv@a^0,w,c
  4061   001624  5E1B               	subwf	___fldiv@rem^0,f,c
  4062   001626  5014               	movf	(___fldiv@a+1)^0,w,c
  4063   001628  5A1C               	subwfb	(___fldiv@rem+1)^0,f,c
  4064   00162A  5015               	movf	(___fldiv@a+2)^0,w,c
  4065   00162C  5A1D               	subwfb	(___fldiv@rem+2)^0,f,c
  4066   00162E  5016               	movf	(___fldiv@a+3)^0,w,c
  4067   001630  5A1E               	subwfb	(___fldiv@rem+3)^0,f,c
  4068   001632                     l2011:
  4069   001632  2A27               	incf	___fldiv@aexp^0,f,c
  4070   001634                     l851:
  4071   001634  0E19               	movlw	25
  4072   001636  6427               	cpfsgt	___fldiv@aexp^0,c
  4073   001638  EF20  F00B         	goto	u1611
  4074   00163C  EF22  F00B         	goto	u1610
  4075   001640                     u1611:
  4076   001640  EFE2  F00A         	goto	l1997
  4077   001644                     u1610:
  4078   001644  501B               	movf	___fldiv@rem^0,w,c
  4079   001646  101C               	iorwf	(___fldiv@rem+1)^0,w,c
  4080   001648  101D               	iorwf	(___fldiv@rem+2)^0,w,c
  4081   00164A  101E               	iorwf	(___fldiv@rem+3)^0,w,c
  4082   00164C  B4D8               	btfsc	status,2,c
  4083   00164E  EF2B  F00B         	goto	u1621
  4084   001652  EF2D  F00B         	goto	u1620
  4085   001656                     u1621:
  4086   001656  EF45  F00B         	goto	l2023
  4087   00165A                     u1620:
  4088   00165A  8022               	bsf	___fldiv@grs^0,0,c
  4089   00165C  EF45  F00B         	goto	l2023
  4090   001660                     l2017:
  4091   001660  90D8               	bcf	status,0,c
  4092   001662  360F               	rlcf	___fldiv@b^0,f,c
  4093   001664  3610               	rlcf	(___fldiv@b+1)^0,f,c
  4094   001666  3611               	rlcf	(___fldiv@b+2)^0,f,c
  4095   001668  3612               	rlcf	(___fldiv@b+3)^0,f,c
  4096   00166A  AE25               	btfss	(___fldiv@grs+3)^0,7,c
  4097   00166C  EF3A  F00B         	goto	u1631
  4098   001670  EF3C  F00B         	goto	u1630
  4099   001674                     u1631:
  4100   001674  EF3D  F00B         	goto	l860
  4101   001678                     u1630:
  4102   001678  800F               	bsf	___fldiv@b^0,0,c
  4103   00167A                     l860:
  4104   00167A  90D8               	bcf	status,0,c
  4105   00167C  3622               	rlcf	___fldiv@grs^0,f,c
  4106   00167E  3623               	rlcf	(___fldiv@grs+1)^0,f,c
  4107   001680  3624               	rlcf	(___fldiv@grs+2)^0,f,c
  4108   001682  3625               	rlcf	(___fldiv@grs+3)^0,f,c
  4109   001684  0620               	decf	___fldiv@new_exp^0,f,c
  4110   001686  A0D8               	btfss	status,0,c
  4111   001688  0621               	decf	(___fldiv@new_exp+1)^0,f,c
  4112   00168A                     l2023:
  4113   00168A  AE11               	btfss	(___fldiv@b+2)^0,7,c
  4114   00168C  EF4A  F00B         	goto	u1641
  4115   001690  EF4C  F00B         	goto	u1640
  4116   001694                     u1641:
  4117   001694  EF30  F00B         	goto	l2017
  4118   001698                     u1640:
  4119   001698  6A27               	clrf	___fldiv@aexp^0,c
  4120   00169A  AE25               	btfss	(___fldiv@grs+3)^0,7,c
  4121   00169C  EF52  F00B         	goto	u1651
  4122   0016A0  EF54  F00B         	goto	u1650
  4123   0016A4                     u1651:
  4124   0016A4  EF78  F00B         	goto	l862
  4125   0016A8                     u1650:
  4126   0016A8  0EFF               	movlw	255
  4127   0016AA  1422               	andwf	___fldiv@grs^0,w,c
  4128   0016AC  6E17               	movwf	??___fldiv^0,c
  4129   0016AE  0EFF               	movlw	255
  4130   0016B0  1423               	andwf	(___fldiv@grs+1)^0,w,c
  4131   0016B2  6E18               	movwf	(??___fldiv+1)^0,c
  4132   0016B4  0EFF               	movlw	255
  4133   0016B6  1424               	andwf	(___fldiv@grs+2)^0,w,c
  4134   0016B8  6E19               	movwf	(??___fldiv+2)^0,c
  4135   0016BA  0E7F               	movlw	127
  4136   0016BC  1425               	andwf	(___fldiv@grs+3)^0,w,c
  4137   0016BE  6E1A               	movwf	(??___fldiv+3)^0,c
  4138   0016C0  5017               	movf	??___fldiv^0,w,c
  4139   0016C2  1018               	iorwf	(??___fldiv+1)^0,w,c
  4140   0016C4  1019               	iorwf	(??___fldiv+2)^0,w,c
  4141   0016C6  101A               	iorwf	(??___fldiv+3)^0,w,c
  4142   0016C8  B4D8               	btfsc	status,2,c
  4143   0016CA  EF69  F00B         	goto	u1661
  4144   0016CE  EF6B  F00B         	goto	u1660
  4145   0016D2                     u1661:
  4146   0016D2  EF6F  F00B         	goto	l863
  4147   0016D6                     u1660:
  4148   0016D6                     l2027:
  4149   0016D6  0E01               	movlw	1
  4150   0016D8  6E27               	movwf	___fldiv@aexp^0,c
  4151   0016DA  EF78  F00B         	goto	l862
  4152   0016DE                     l863:
  4153   0016DE  A00F               	btfss	___fldiv@b^0,0,c
  4154   0016E0  EF74  F00B         	goto	u1671
  4155   0016E4  EF76  F00B         	goto	u1670
  4156   0016E8                     u1671:
  4157   0016E8  EF78  F00B         	goto	l862
  4158   0016EC                     u1670:
  4159   0016EC  EF6B  F00B         	goto	l2027
  4160   0016F0                     l862:
  4161   0016F0  5027               	movf	___fldiv@aexp^0,w,c
  4162   0016F2  B4D8               	btfsc	status,2,c
  4163   0016F4  EF7E  F00B         	goto	u1681
  4164   0016F8  EF80  F00B         	goto	u1680
  4165   0016FC                     u1681:
  4166   0016FC  EFA4  F00B         	goto	l2039
  4167   001700                     u1680:
  4168   001700  0E01               	movlw	1
  4169   001702  260F               	addwf	___fldiv@b^0,f,c
  4170   001704  0E00               	movlw	0
  4171   001706  2210               	addwfc	(___fldiv@b+1)^0,f,c
  4172   001708  2211               	addwfc	(___fldiv@b+2)^0,f,c
  4173   00170A  2212               	addwfc	(___fldiv@b+3)^0,f,c
  4174   00170C  A012               	btfss	(___fldiv@b+3)^0,0,c
  4175   00170E  EF8B  F00B         	goto	u1691
  4176   001712  EF8D  F00B         	goto	u1690
  4177   001716                     u1691:
  4178   001716  EFA4  F00B         	goto	l2039
  4179   00171A                     u1690:
  4180   00171A  C00F  F017         	movff	___fldiv@b,??___fldiv
  4181   00171E  C010  F018         	movff	___fldiv@b+1,??___fldiv+1
  4182   001722  C011  F019         	movff	___fldiv@b+2,??___fldiv+2
  4183   001726  C012  F01A         	movff	___fldiv@b+3,??___fldiv+3
  4184   00172A  341A               	rlcf	(??___fldiv+3)^0,w,c
  4185   00172C  321A               	rrcf	(??___fldiv+3)^0,f,c
  4186   00172E  3219               	rrcf	(??___fldiv+2)^0,f,c
  4187   001730  3218               	rrcf	(??___fldiv+1)^0,f,c
  4188   001732  3217               	rrcf	??___fldiv^0,f,c
  4189   001734  C017  F00F         	movff	??___fldiv,___fldiv@b
  4190   001738  C018  F010         	movff	??___fldiv+1,___fldiv@b+1
  4191   00173C  C019  F011         	movff	??___fldiv+2,___fldiv@b+2
  4192   001740  C01A  F012         	movff	??___fldiv+3,___fldiv@b+3
  4193   001744  4A20               	infsnz	___fldiv@new_exp^0,f,c
  4194   001746  2A21               	incf	(___fldiv@new_exp+1)^0,f,c
  4195   001748                     l2039:
  4196   001748  BE21               	btfsc	(___fldiv@new_exp+1)^0,7,c
  4197   00174A  EFAF  F00B         	goto	u1701
  4198   00174E  5021               	movf	(___fldiv@new_exp+1)^0,w,c
  4199   001750  E108               	bnz	u1700
  4200   001752  2820               	incf	___fldiv@new_exp^0,w,c
  4201   001754  A0D8               	btfss	status,0,c
  4202   001756  EFAF  F00B         	goto	u1701
  4203   00175A  EFB1  F00B         	goto	u1700
  4204   00175E                     u1701:
  4205   00175E  EFBC  F00B         	goto	l2043
  4206   001762                     u1700:
  4207   001762  0E00               	movlw	0
  4208   001764  6E21               	movwf	(___fldiv@new_exp+1)^0,c
  4209   001766  6820               	setf	___fldiv@new_exp^0,c
  4210   001768  0E00               	movlw	0
  4211   00176A  6E0F               	movwf	___fldiv@b^0,c
  4212   00176C  0E00               	movlw	0
  4213   00176E  6E10               	movwf	(___fldiv@b+1)^0,c
  4214   001770  0E00               	movlw	0
  4215   001772  6E11               	movwf	(___fldiv@b+2)^0,c
  4216   001774  0E00               	movlw	0
  4217   001776  6E12               	movwf	(___fldiv@b+3)^0,c
  4218   001778                     l2043:
  4219   001778  BE21               	btfsc	(___fldiv@new_exp+1)^0,7,c
  4220   00177A  EFC9  F00B         	goto	u1710
  4221   00177E  5021               	movf	(___fldiv@new_exp+1)^0,w,c
  4222   001780  E106               	bnz	u1711
  4223   001782  0420               	decf	___fldiv@new_exp^0,w,c
  4224   001784  B0D8               	btfsc	status,0,c
  4225   001786  EFC7  F00B         	goto	u1711
  4226   00178A  EFC9  F00B         	goto	u1710
  4227   00178E                     u1711:
  4228   00178E  EFD5  F00B         	goto	l2049
  4229   001792                     u1710:
  4230   001792  6A21               	clrf	(___fldiv@new_exp+1)^0,c
  4231   001794  0E00               	movlw	0
  4232   001796  6E20               	movwf	___fldiv@new_exp^0,c
  4233   001798  0E00               	movlw	0
  4234   00179A  6E0F               	movwf	___fldiv@b^0,c
  4235   00179C  0E00               	movlw	0
  4236   00179E  6E10               	movwf	(___fldiv@b+1)^0,c
  4237   0017A0  0E00               	movlw	0
  4238   0017A2  6E11               	movwf	(___fldiv@b+2)^0,c
  4239   0017A4  0E00               	movlw	0
  4240   0017A6  6E12               	movwf	(___fldiv@b+3)^0,c
  4241   0017A8  6A1F               	clrf	___fldiv@sign^0,c
  4242   0017AA                     l2049:
  4243   0017AA  C020  F026         	movff	___fldiv@new_exp,___fldiv@bexp
  4244   0017AE  A026               	btfss	___fldiv@bexp^0,0,c
  4245   0017B0  EFDC  F00B         	goto	u1721
  4246   0017B4  EFDE  F00B         	goto	u1720
  4247   0017B8                     u1721:
  4248   0017B8  EFE1  F00B         	goto	l2055
  4249   0017BC                     u1720:
  4250   0017BC  8E11               	bsf	(___fldiv@b+2)^0,7,c
  4251   0017BE  EFE2  F00B         	goto	l2057
  4252   0017C2                     l2055:
  4253   0017C2  9E11               	bcf	(___fldiv@b+2)^0,7,c
  4254   0017C4                     l2057:
  4255   0017C4  90D8               	bcf	status,0,c
  4256   0017C6  3026               	rrcf	___fldiv@bexp^0,w,c
  4257   0017C8  6E12               	movwf	(___fldiv@b+3)^0,c
  4258   0017CA  EF9C  F00A         	goto	l1973
  4259   0017CE                     l849:
  4260   0017CE  0012               	return		;funcret
  4261   0017D0                     __end_of___fldiv:
  4262                           	callstack 0
  4263                           
  4264 ;; *************** function _adcsuccess *****************
  4265 ;; Defined at:
  4266 ;;		line 41 in file "main.c"
  4267 ;; Parameters:    Size  Location     Type
  4268 ;;		None
  4269 ;; Auto vars:     Size  Location     Type
  4270 ;;  i               2   24[COMRAM] int 
  4271 ;;  message        23    1[COMRAM] unsigned char [23]
  4272 ;; Return value:  Size  Location     Type
  4273 ;;                  1    wreg      void 
  4274 ;; Registers used:
  4275 ;;		wreg, fsr1l, fsr1h, fsr2l, fsr2h, status,2, status,0
  4276 ;; Tracked objects:
  4277 ;;		On entry : 0/0
  4278 ;;		On exit  : 0/0
  4279 ;;		Unchanged: 0/0
  4280 ;; Data sizes:     COMRAM   BANK0   BANK1   BANK2   BANK3   BANK4   BANK5   BANK6   BANK7   BANK8   BANK9  BANK10  BANK1
      +1  BANK12  BANK13  BANK14  BANK15
  4281 ;;      Params:         0       0       0       0       0       0       0       0       0       0       0       0       
      +0       0       0       0       0
  4282 ;;      Locals:        25       0       0       0       0       0       0       0       0       0       0       0       
      +0       0       0       0       0
  4283 ;;      Temps:          1       0       0       0       0       0       0       0       0       0       0       0       
      +0       0       0       0       0
  4284 ;;      Totals:        26       0       0       0       0       0       0       0       0       0       0       0       
      +0       0       0       0       0
  4285 ;;Total ram usage:       26 bytes
  4286 ;; Hardware stack levels used: 1
  4287 ;; This function calls:
  4288 ;;		Nothing
  4289 ;; This function is called by:
  4290 ;;		_main
  4291 ;; This function uses a non-reentrant model
  4292 ;;
  4293                           
  4294                           	psect	text19
  4295   0022CC                     __ptext19:
  4296                           	callstack 0
  4297   0022CC                     _adcsuccess:
  4298                           	callstack 30
  4299   0022CC                     
  4300                           ;main.c: 42:     char message[] = "ADC setup successful\r\n";
  4301   0022CC  EE20  F0B2         	lfsr	2,adcsuccess@F6345
  4302   0022D0  EE10  F002         	lfsr	1,adcsuccess@message
  4303   0022D4  0E16               	movlw	22
  4304   0022D6                     u2121:
  4305   0022D6  CFDB FFE3          	movff	plusw2,plusw1
  4306   0022DA  06E8               	decf	wreg,f,c
  4307   0022DC  E2FC               	bc	u2121
  4308   0022DE                     
  4309                           ;main.c: 43: for (int i = 0; message[i] != '\0'; i++) {
  4310   0022DE  6A1A               	clrf	(adcsuccess@i+1)^0,c
  4311   0022E0  0E00               	movlw	0
  4312   0022E2  6E19               	movwf	adcsuccess@i^0,c
  4313   0022E4  EF83  F011         	goto	l2303
  4314   0022E8                     l66:
  4315                           
  4316                           ;main.c: 44:         while(PIR1bits.TXIF == 0){;
  4317   0022E8  A89E               	btfss	158,4,c	;volatile
  4318   0022EA  EF79  F011         	goto	u2131
  4319   0022EE  EF7B  F011         	goto	u2130
  4320   0022F2                     u2131:
  4321   0022F2  EF74  F011         	goto	l66
  4322   0022F6                     u2130:
  4323   0022F6                     
  4324                           ;main.c: 47:     TXREG1 = message[i];
  4325   0022F6  5019               	movf	adcsuccess@i^0,w,c
  4326   0022F8  0F02               	addlw	low adcsuccess@message
  4327   0022FA  6ED9               	movwf	fsr2l,c
  4328   0022FC  6ADA               	clrf	fsr2h,c
  4329   0022FE  50DF               	movf	indf2,w,c
  4330   002300  6EAD               	movwf	173,c	;volatile
  4331   002302                     
  4332                           ;main.c: 48: }
  4333   002302  4A19               	infsnz	adcsuccess@i^0,f,c
  4334   002304  2A1A               	incf	(adcsuccess@i+1)^0,f,c
  4335   002306                     l2303:
  4336   002306  5019               	movf	adcsuccess@i^0,w,c
  4337   002308  0F02               	addlw	low adcsuccess@message
  4338   00230A  6ED9               	movwf	fsr2l,c
  4339   00230C  6ADA               	clrf	fsr2h,c
  4340   00230E  50DF               	movf	indf2,w,c
  4341   002310  A4D8               	btfss	status,2,c
  4342   002312  EF8D  F011         	goto	u2141
  4343   002316  EF8F  F011         	goto	u2140
  4344   00231A                     u2141:
  4345   00231A  EF74  F011         	goto	l66
  4346   00231E                     u2140:
  4347   00231E                     
  4348                           ;main.c: 49:     _delay((unsigned long)((5)*(16000000UL/4000.0)));
  4349   00231E  0E1A               	movlw	26
  4350   002320  6E01               	movwf	??_adcsuccess^0,c
  4351   002322  0EF8               	movlw	248
  4352   002324                     u2377:
  4353   002324  2EE8               	decfsz	wreg,f,c
  4354   002326  D7FE               	bra	u2377
  4355   002328  2E01               	decfsz	??_adcsuccess^0,f,c
  4356   00232A  D7FC               	bra	u2377
  4357   00232C  D000               	nop2	
  4358   00232E  0012               	return		;funcret
  4359   002330                     __end_of_adcsuccess:
  4360                           	callstack 0
  4361                           
  4362 ;; *************** function _adcsetup *****************
  4363 ;; Defined at:
  4364 ;;		line 73 in file "main.c"
  4365 ;; Parameters:    Size  Location     Type
  4366 ;;		None
  4367 ;; Auto vars:     Size  Location     Type
  4368 ;;		None
  4369 ;; Return value:  Size  Location     Type
  4370 ;;                  1    wreg      void 
  4371 ;; Registers used:
  4372 ;;		wreg, status,2
  4373 ;; Tracked objects:
  4374 ;;		On entry : 0/0
  4375 ;;		On exit  : 0/0
  4376 ;;		Unchanged: 0/0
  4377 ;; Data sizes:     COMRAM   BANK0   BANK1   BANK2   BANK3   BANK4   BANK5   BANK6   BANK7   BANK8   BANK9  BANK10  BANK1
      +1  BANK12  BANK13  BANK14  BANK15
  4378 ;;      Params:         0       0       0       0       0       0       0       0       0       0       0       0       
      +0       0       0       0       0
  4379 ;;      Locals:         0       0       0       0       0       0       0       0       0       0       0       0       
      +0       0       0       0       0
  4380 ;;      Temps:          1       0       0       0       0       0       0       0       0       0       0       0       
      +0       0       0       0       0
  4381 ;;      Totals:         1       0       0       0       0       0       0       0       0       0       0       0       
      +0       0       0       0       0
  4382 ;;Total ram usage:        1 bytes
  4383 ;; Hardware stack levels used: 1
  4384 ;; This function calls:
  4385 ;;		Nothing
  4386 ;; This function is called by:
  4387 ;;		_main
  4388 ;; This function uses a non-reentrant model
  4389 ;;
  4390                           
  4391                           	psect	text20
  4392   0021EA                     __ptext20:
  4393                           	callstack 0
  4394   0021EA                     _adcsetup:
  4395                           	callstack 30
  4396   0021EA                     
  4397                           ;main.c: 76:     ANSELAbits.ANSA0 = 1;
  4398   0021EA  010F               	movlb	15	; () banked
  4399   0021EC  8138               	bsf	56,0,b	;volatile
  4400                           
  4401                           ;main.c: 77:     TRISAbits.TRISA0 = 1;
  4402   0021EE  8092               	bsf	146,0,c	;volatile
  4403                           
  4404                           ;main.c: 79:     ANSELAbits.ANSA1 = 1;
  4405   0021F0  8338               	bsf	56,1,b	;volatile
  4406                           
  4407                           ;main.c: 80:     TRISAbits.TRISA1 = 1;
  4408   0021F2  8292               	bsf	146,1,c	;volatile
  4409                           
  4410                           ;main.c: 82:     ANSELAbits.ANSA2 = 1;
  4411   0021F4  8538               	bsf	56,2,b	;volatile
  4412                           
  4413                           ;main.c: 83:     TRISAbits.TRISA2 = 1;
  4414   0021F6  8492               	bsf	146,2,c	;volatile
  4415                           
  4416                           ;main.c: 85:     ANSELAbits.ANSA3 = 1;
  4417   0021F8  8738               	bsf	56,3,b	;volatile
  4418                           
  4419                           ;main.c: 86:     TRISAbits.TRISA3 = 1;
  4420   0021FA  8692               	bsf	146,3,c	;volatile
  4421                           
  4422                           ;main.c: 88:     ANSELAbits.ANSA5 = 1;
  4423   0021FC  8B38               	bsf	56,5,b	;volatile
  4424                           
  4425                           ;main.c: 89:     TRISAbits.TRISA5 = 1;
  4426   0021FE  8A92               	bsf	146,5,c	;volatile
  4427                           
  4428                           ;main.c: 91:     ANSELEbits.ANSE0 = 1;
  4429   002200  813C               	bsf	60,0,b	;volatile
  4430                           
  4431                           ;main.c: 92:     TRISEbits.TRISE0 = 1;
  4432   002202  8096               	bsf	150,0,c	;volatile
  4433                           
  4434                           ;main.c: 94:     ANSELEbits.ANSE1 = 1;
  4435   002204  833C               	bsf	60,1,b	;volatile
  4436                           
  4437                           ;main.c: 95:     TRISEbits.TRISE1 = 1;
  4438   002206  8296               	bsf	150,1,c	;volatile
  4439                           
  4440                           ;main.c: 97:     ANSELEbits.ANSE2 = 1;
  4441   002208  853C               	bsf	60,2,b	;volatile
  4442                           
  4443                           ;main.c: 98:     TRISEbits.TRISE2 = 1;
  4444   00220A  8496               	bsf	150,2,c	;volatile
  4445                           
  4446                           ;main.c: 100:     ANSELBbits.ANSB2 = 1;
  4447   00220C  8539               	bsf	57,2,b	;volatile
  4448                           
  4449                           ;main.c: 101:     TRISBbits.TRISB2 = 1;
  4450   00220E  8493               	bsf	147,2,c	;volatile
  4451                           
  4452                           ;main.c: 103:     ANSELBbits.ANSB3 = 1;
  4453   002210  8739               	bsf	57,3,b	;volatile
  4454                           
  4455                           ;main.c: 104:     TRISBbits.TRISB3 = 1;
  4456   002212  8693               	bsf	147,3,c	;volatile
  4457                           
  4458                           ;main.c: 106:     ANSELBbits.ANSB1 = 1;
  4459   002214  8339               	bsf	57,1,b	;volatile
  4460                           
  4461                           ;main.c: 107:     TRISBbits.TRISB1 = 1;
  4462   002216  8293               	bsf	147,1,c	;volatile
  4463                           
  4464                           ;main.c: 109:     ANSELBbits.ANSB4 = 1;
  4465   002218  8939               	bsf	57,4,b	;volatile
  4466                           
  4467                           ;main.c: 110:     TRISBbits.TRISB4 = 1;
  4468   00221A  8893               	bsf	147,4,c	;volatile
  4469                           
  4470                           ;main.c: 112:     ANSELBbits.ANSB0 = 1;
  4471   00221C  8139               	bsf	57,0,b	;volatile
  4472                           
  4473                           ;main.c: 113:     TRISBbits.TRISB0 = 1;
  4474   00221E  8093               	bsf	147,0,c	;volatile
  4475                           
  4476                           ;main.c: 124:     ADCON0bits.ADON = 1;
  4477   002220  80C2               	bsf	194,0,c	;volatile
  4478   002222                     
  4479                           ; BSR set to: 15
  4480                           ;main.c: 126:     ADCON1bits.PVCFG = 0b10;
  4481   002222  50C1               	movf	193,w,c	;volatile
  4482   002224  0BF3               	andlw	-13
  4483   002226  0908               	iorlw	8
  4484   002228  6EC1               	movwf	193,c	;volatile
  4485   00222A                     
  4486                           ; BSR set to: 15
  4487                           ;main.c: 127:     VREFCON0bits.FVREN = 1;
  4488   00222A  8F42               	bsf	66,7,b	;volatile
  4489                           
  4490                           ;main.c: 128:     VREFCON0bits.FVRS = 0b01;
  4491   00222C  5142               	movf	66,w,b	;volatile
  4492   00222E  0BCF               	andlw	-49
  4493   002230  0910               	iorlw	16
  4494   002232  6F42               	movwf	66,b	;volatile
  4495                           
  4496                           ;main.c: 130:     ADCON2bits.ADCS = 0b010;
  4497   002234  50C0               	movf	192,w,c	;volatile
  4498   002236  0BF8               	andlw	-8
  4499   002238  0902               	iorlw	2
  4500   00223A  6EC0               	movwf	192,c	;volatile
  4501   00223C                     
  4502                           ; BSR set to: 15
  4503                           ;main.c: 131:     ADCON2bits.ADFM = 1;
  4504   00223C  8EC0               	bsf	192,7,c	;volatile
  4505                           
  4506                           ;main.c: 132:     ADCON2bits.ACQT = 0b111;
  4507   00223E  0E38               	movlw	56
  4508   002240  12C0               	iorwf	192,f,c	;volatile
  4509                           
  4510                           ;main.c: 134:     while(VREFCON0bits.FVRST == 0){
  4511   002242  EF2B  F011         	goto	l2331
  4512   002246                     l2329:
  4513                           
  4514                           ; BSR set to: 15
  4515                           ;main.c: 135:         _delay((unsigned long)((1)*(16000000UL/4000.0)));
  4516   002246  0E06               	movlw	6
  4517   002248  6E01               	movwf	??_adcsetup^0,c
  4518   00224A  0E30               	movlw	48
  4519   00224C                     u2387:
  4520   00224C  2EE8               	decfsz	wreg,f,c
  4521   00224E  D7FE               	bra	u2387
  4522   002250  2E01               	decfsz	??_adcsetup^0,f,c
  4523   002252  D7FC               	bra	u2387
  4524   002254  D000               	nop2	
  4525   002256                     l2331:
  4526                           
  4527                           ;main.c: 134:     while(VREFCON0bits.FVRST == 0){
  4528   002256  010F               	movlb	15	; () banked
  4529   002258  AD42               	btfss	66,6,b	;volatile
  4530   00225A  EF31  F011         	goto	u2151
  4531   00225E  EF33  F011         	goto	u2150
  4532   002262                     u2151:
  4533   002262  EF23  F011         	goto	l2329
  4534   002266                     u2150:
  4535   002266                     
  4536                           ; BSR set to: 15
  4537   002266  0012               	return		;funcret
  4538   002268                     __end_of_adcsetup:
  4539                           	callstack 0
  4540                           
  4541                           	psect	rparam
  4542   000001                     ___rparam_used  equ	1
  4543   000000                     ___param_bank   equ	0
  4544   000000                     __Lparam        equ	__Lrparam
  4545   000000                     __Hparam        equ	__Hrparam
  4546                           tosu	equ	0xFFF
  4547                           tosh	equ	0xFFE
  4548                           tosl	equ	0xFFD
  4549                           stkptr	equ	0xFFC
  4550                           pclatu	equ	0xFFB
  4551                           pclath	equ	0xFFA
  4552                           pcl	equ	0xFF9
  4553                           tblptru	equ	0xFF8
  4554                           tblptrh	equ	0xFF7
  4555                           tblptrl	equ	0xFF6
  4556                           tablat	equ	0xFF5
  4557                           prodh	equ	0xFF4
  4558                           prodl	equ	0xFF3
  4559                           indf0	equ	0xFEF
  4560                           postinc0	equ	0xFEE
  4561                           postdec0	equ	0xFED
  4562                           preinc0	equ	0xFEC
  4563                           plusw0	equ	0xFEB
  4564                           fsr0h	equ	0xFEA
  4565                           fsr0l	equ	0xFE9
  4566                           wreg	equ	0xFE8
  4567                           indf1	equ	0xFE7
  4568                           postinc1	equ	0xFE6
  4569                           postdec1	equ	0xFE5
  4570                           preinc1	equ	0xFE4
  4571                           plusw1	equ	0xFE3
  4572                           fsr1h	equ	0xFE2
  4573                           fsr1l	equ	0xFE1
  4574                           bsr	equ	0xFE0
  4575                           indf2	equ	0xFDF
  4576                           postinc2	equ	0xFDE
  4577                           postdec2	equ	0xFDD
  4578                           preinc2	equ	0xFDC
  4579                           plusw2	equ	0xFDB
  4580                           fsr2h	equ	0xFDA
  4581                           fsr2l	equ	0xFD9
  4582                           status	equ	0xFD8

Data Sizes:
    Strings     3
    Constant    23
    Data        47
    BSS         63
    Persistent  0
    Stack       0

Auto Spaces:
    Space          Size  Autos    Used
    COMRAM           95     78      83
    BANK0           160     38     143
    BANK1           256      0       0
    BANK2           256      0       0
    BANK3           256      0       0
    BANK4           256      0       0
    BANK5           256      0       0
    BANK6           256      0       0
    BANK7           256      0       0
    BANK8           256      0       0
    BANK9           256      0       0
    BANK10          256      0       0
    BANK11          256      0       0
    BANK12          256      0       0
    BANK13          256      0       0
    BANK14          256      0       0
    BANK15           56      0       0

Pointer List with Targets:

    dectohex@Anum	PTR unsigned char  size(1) Largest target is 7
		 -> main@label(BANK0[7]), 

    f$.$buffer	PTR unsigned char  size(1) Largest target is 20
		 -> dectohex@numberValue(COMRAM[20]), 

    f$.$source	PTR const unsigned char  size(2) Largest target is 0

    fputc@fp	PTR struct _IO_FILE size(1) Largest target is 11
		 -> sprintf@f(COMRAM[11]), 

    fputc@fp$.$buffer	PTR unsigned char  size(1) Largest target is 20
		 -> dectohex@numberValue(COMRAM[20]), 

    fputc@fp$.$source	PTR const unsigned char  size(2) Largest target is 0

    S1405$buffer	PTR unsigned char  size(1) Largest target is 20
		 -> dectohex@numberValue(COMRAM[20]), 

    S1405$source	PTR const unsigned char  size(2) Largest target is 0

    sprintf@ap	PTR void [1] size(1) Largest target is 2
		 -> ?_sprintf(COMRAM[2]), 

    sprintf@fmt	PTR const unsigned char  size(1) Largest target is 3
		 -> STR_1(CODE[3]), 

    sprintf@s	PTR unsigned char  size(1) Largest target is 20
		 -> dectohex@numberValue(COMRAM[20]), 

    uarttx@Anum	PTR unsigned char  size(1) Largest target is 7
		 -> main@label(BANK0[7]), 

    uarttx@message	PTR unsigned char  size(1) Largest target is 20
		 -> dectohex@numberValue(COMRAM[20]), 

    vfpfcnvrt@ap	PTR PTR void  size(1) Largest target is 1
		 -> sprintf@ap(COMRAM[1]), 

    vfpfcnvrt@cp	PTR unsigned char  size(1) Largest target is 3
		 -> STR_1(CODE[3]), 

    vfpfcnvrt@fmt	PTR PTR unsigned char  size(1) Largest target is 1
		 -> vfprintf@cfmt(COMRAM[1]), 

    vfpfcnvrt@fp	PTR struct _IO_FILE size(1) Largest target is 11
		 -> sprintf@f(COMRAM[11]), 

    vfprintf@ap	PTR PTR void  size(1) Largest target is 1
		 -> sprintf@ap(COMRAM[1]), 

    vfprintf@cfmt	PTR unsigned char  size(1) Largest target is 3
		 -> STR_1(CODE[3]), 

    vfprintf@fmt	PTR const unsigned char  size(1) Largest target is 3
		 -> STR_1(CODE[3]), 

    vfprintf@fp	PTR struct _IO_FILE size(1) Largest target is 11
		 -> sprintf@f(COMRAM[11]), 


Critical Paths under _main in COMRAM

    _main->_dectohex
    _dectohex->_sprintf
    _sprintf->_vfprintf
    _vfprintf->_vfpfcnvrt
    _vfpfcnvrt->_abs
    _abs->___awmod
    ___fltol->___flmul
    ___fldiv->___xxtofl

Critical Paths under _main in BANK0

    None.

Critical Paths under _main in BANK1

    None.

Critical Paths under _main in BANK2

    None.

Critical Paths under _main in BANK3

    None.

Critical Paths under _main in BANK4

    None.

Critical Paths under _main in BANK5

    None.

Critical Paths under _main in BANK6

    None.

Critical Paths under _main in BANK7

    None.

Critical Paths under _main in BANK8

    None.

Critical Paths under _main in BANK9

    None.

Critical Paths under _main in BANK10

    None.

Critical Paths under _main in BANK11

    None.

Critical Paths under _main in BANK12

    None.

Critical Paths under _main in BANK13

    None.

Critical Paths under _main in BANK14

    None.

Critical Paths under _main in BANK15

    None.

Call Graph Tables:

 ---------------------------------------------------------------------------------
 (Depth) Function   	        Calls       Base Space   Used Autos Params    Refs
 ---------------------------------------------------------------------------------
 (0) _main                                                40    40      0    6945
                                             76 COMRAM     2     2      0
                                              0 BANK0     38    38      0
                            ___awdiv
                            ___awmod
                           _adcsetup
                         _adcsuccess
                           _dectohex
                            _uartEnd
                          _uartStart
                          _uartsetup
                        _uartsuccess
 ---------------------------------------------------------------------------------
 (1) _uartsuccess                                         27    27      0      93
                                              0 COMRAM    27    27      0
 ---------------------------------------------------------------------------------
 (1) _uartsetup                                            0     0      0       0
 ---------------------------------------------------------------------------------
 (1) _uartStart                                           11    11      0      93
                                              0 COMRAM    11    11      0
 ---------------------------------------------------------------------------------
 (1) _uartEnd                                              9     9      0      93
                                              0 COMRAM     9     9      0
 ---------------------------------------------------------------------------------
 (1) _dectohex                                            41    38      3    5387
                                             41 COMRAM    35    32      3
                            ___fldiv
                            ___flmul
                            ___fltol
                           ___xxtofl
                            _sprintf
                             _uarttx
 ---------------------------------------------------------------------------------
 (2) _uarttx                                              11     9      2     275
                                              0 COMRAM    11     9      2
 ---------------------------------------------------------------------------------
 (2) _sprintf                                             18    14      4    1764
                                             25 COMRAM    16    12      4
                           _vfprintf
 ---------------------------------------------------------------------------------
 (3) _vfprintf                                             4     1      3    1563
                                             21 COMRAM     4     1      3
                          _vfpfcnvrt
 ---------------------------------------------------------------------------------
 (4) _vfpfcnvrt                                           11     8      3    1438
                                             10 COMRAM    11     8      3
                            ___awdiv
                            ___awmod
                                _abs
                              _fputc
 ---------------------------------------------------------------------------------
 (5) _fputc                                                8     5      3     230
                                              0 COMRAM     8     5      3
                              _putch
 ---------------------------------------------------------------------------------
 (6) _putch                                                1     1      0       0
 ---------------------------------------------------------------------------------
 (5) _abs                                                  4     2      2      67
                                              6 COMRAM     4     2      2
                            ___awmod (ARG)
 ---------------------------------------------------------------------------------
 (5) ___awmod                                              6     2      4     300
                                              0 COMRAM     6     2      4
 ---------------------------------------------------------------------------------
 (5) ___awdiv                                              8     4      4     304
                                              0 COMRAM     8     4      4
 ---------------------------------------------------------------------------------
 (2) ___xxtofl                                            14    10      4     337
                                              0 COMRAM    14    10      4
 ---------------------------------------------------------------------------------
 (2) ___fltol                                             10     6      4     230
                                             25 COMRAM    10     6      4
                            ___flmul (ARG)
 ---------------------------------------------------------------------------------
 (2) ___flmul                                             25    17      8    1468
                                              0 COMRAM    25    17      8
 ---------------------------------------------------------------------------------
 (2) ___fldiv                                             25    17      8    1125
                                             14 COMRAM    25    17      8
                           ___xxtofl (ARG)
 ---------------------------------------------------------------------------------
 (1) _adcsuccess                                          26    26      0      93
                                              0 COMRAM    26    26      0
 ---------------------------------------------------------------------------------
 (1) _adcsetup                                             1     1      0       0
                                              0 COMRAM     1     1      0
 ---------------------------------------------------------------------------------
 Estimated maximum stack depth 6
 ---------------------------------------------------------------------------------

 Call Graph Graphs:

 _main (ROOT)
   ___awdiv
   ___awmod
   _adcsetup
   _adcsuccess
   _dectohex
     ___fldiv
       ___xxtofl (ARG)
     ___flmul
     ___fltol
       ___flmul (ARG)
     ___xxtofl
     _sprintf
       _vfprintf
         _vfpfcnvrt
           ___awdiv
           ___awmod
           _abs
             ___awmod (ARG)
           _fputc
             _putch
     _uarttx
   _uartEnd
   _uartStart
   _uartsetup
   _uartsuccess

Address spaces:
Name               Size   Autos  Total    Usage
BIGRAM            3895      0       0      0.0%
BITBANK14          256      0       0      0.0%
BANK14             256      0       0      0.0%
BITBANK13          256      0       0      0.0%
BANK13             256      0       0      0.0%
BITBANK12          256      0       0      0.0%
BANK12             256      0       0      0.0%
BITBANK11          256      0       0      0.0%
BANK11             256      0       0      0.0%
BITBANK10          256      0       0      0.0%
BANK10             256      0       0      0.0%
BITBANK9           256      0       0      0.0%
BANK9              256      0       0      0.0%
BITBANK8           256      0       0      0.0%
BANK8              256      0       0      0.0%
BITBANK7           256      0       0      0.0%
BANK7              256      0       0      0.0%
BITBANK6           256      0       0      0.0%
BANK6              256      0       0      0.0%
BITBANK5           256      0       0      0.0%
BANK5              256      0       0      0.0%
BITBANK4           256      0       0      0.0%
BANK4              256      0       0      0.0%
BITBANK3           256      0       0      0.0%
BANK3              256      0       0      0.0%
BITBANK2           256      0       0      0.0%
BANK2              256      0       0      0.0%
BITBANK1           256      0       0      0.0%
BANK1              256      0       0      0.0%
BITBIGSFRh         195      0       0      0.0%
BITBANK0           160      0       0      0.0%
BANK0              160     38     143     89.4%
BITCOMRAM           95      0       0      0.0%
COMRAM              95     78      83     87.4%
BITBANK15           56      0       0      0.0%
BANK15              56      0       0      0.0%
BITBIGSFRlh          1      0       0      0.0%
STACK                0      0       0      0.0%
DATA                 0      0     226      0.0%


Microchip Technology PIC18 Macro Assembler V3.10 build 20250813170317 
Symbol Table                                                                                   Fri Mar 13 00:34:07 2026

       uartsuccess@F6341 009A                        _R 1011             ___fldiv@aexp 0027  
           ___fldiv@bexp 0026             ___fldiv@sign 001F                       l70 232E  
                     l55 2284                       l73 2504                       l66 22E8  
                     l90 2384                       l59 22CA                       l86 234E  
                     l79 2266                       l97 23A4             ___awdiv@sign 0006  
         dectohex@number 004B                      l101 23DA                      l120 1F9A  
                    l114 1F5A                      l124 1FD0                      l108 1F1A  
                    l141 1888                      l142 18BA                      l127 1EF8  
                    l143 188A                      l146 18BC                      l139 199A  
                    l511 213E                      l564 1E14                      l922 1A10  
                    l498 2090                      l851 1634                      l860 167A  
                    l861 1698                      l925 1B6C                      l862 16F0  
                    l854 15F8                      l863 16DE                      l936 1B04  
                    l849 17CE                      l881 10E0                      l929 1AA8  
                    l945 24BA                      l890 134C                      l891 133A  
                    l885 1440                      l983 1D0E                      l888 12D6  
                    l889 12F4                      l993 2472                      l898 1402  
                    l996 248A                      l989 2456         dectohex@adcvalue 002A  
                    _abs 2458          dectohex@current 0045             ___awmod@sign 0006  
                    wreg 0FE8               _TXSTA1bits 0FAC             ___flmul@aexp 0012  
           ___flmul@bexp 0013             ___flmul@sign 000D             ___flmul@temp 0018  
           ___flmul@prod 0014             ___fltol@exp1 0023                     l1008 21E8  
                   l2001 15E8                     l2011 1632                     l2003 15F6  
                   l1019 2506                     ?_abs 0007                     l2021 1678  
                   l2013 1644                     l2005 1602                     l2101 1100  
                   l2031 1700                     l2015 165A                     l2023 168A  
                   l2007 1620                     l2111 1140                     l2041 1762  
                   l2033 170C                     l2025 16A8                     l2017 1660  
                   l2009 1622                     l2121 118A                     l2113 114C  
                   l2105 1114                     l2201 1D64                     l2051 17AE  
                   l2043 1778                     l2035 171A                     l2027 16D6  
                   l2019 166A                     l2131 11DC                     l2123 1196  
                   l2115 1164                     l2107 1120                     l2203 1D66  
                   l2301 2302                     l2053 17BC                     l2045 1792  
                   l2037 1744                     l2141 125A                     l2133 11EC  
                   l2125 11A6                     l2117 1170                     l2109 112A  
                   l2205 1D76                     l2303 2306                     l2055 17C2  
                   l2047 17A8                     l2039 1748                     l2151 12D4  
                   l2143 1290                     l2135 1208                     l2127 11B2  
                   l2119 117C                     l2071 1038                     l2231 1DF4  
                   l2215 1DA0                     l2207 1D7A                     l2311 24FA  
                   l2321 21EA                     l2305 231E                     l2057 17C4  
                   l2049 17AA                     l2161 135C                     l2153 12E6  
                   l2145 129E                     l2137 1214                     l2129 11C2  
                   l2081 107E                     l2073 1048                     l2065 101C  
                   l2233 1E04                     l2225 1DC8                     l2217 1DAA  
                   l2209 1D88                     l2241 19DA                     l2313 24FC  
                   l2401 1870                     l2331 2256                     l2323 2222  
                   l2171 13BE                     l2163 1368                     l2155 1304  
                   l2147 12BC                     l2139 1230                     l2091 10AA  
                   l2083 1084                     l2075 1058                     l2067 1028  
                   l2227 1DD4                     l2219 1DB4                     l2251 1A52  
                   l2243 1A20                     l2315 24FE                     l2307 24EC  
                   l2411 189E                     l2403 1880                     l2325 222A  
                   l2181 1416                     l2173 13D2                     l2165 1376  
                   l2157 1332                     l2149 12C6                     l2093 10BA  
                   l2085 108A                     l2077 1068                     l2069 1036  
                   l2229 1DE4                     l2261 1ADA                     l2253 1A5E  
                   l2245 1A36                     l2237 19BC                     l2341 236C  
                   l2333 2330                     l2317 2500                     l2309 24F6  
                   l2421 1902                     l2413 18CA                     l2327 223C  
                   l2183 1424                     l2175 13EC                     l2167 13A0  
                   l2095 10CA                     l2087 1098                     l2079 106E  
                   l2271 1B18                     l2263 1AE6                     l2255 1A90  
                   l2239 19CC                     l2351 23C2                     l2343 2386  
                   l2335 2344                     l2319 2502                     l2431 1940  
                   l2423 1906                     l2415 18E8                     l2329 2246  
                   l2185 1426                     l2177 13FC                     l2169 13A4  
                   l2097 10D0                     l2089 109A                     l2193 1D10  
                   l2273 1B3C                     l2265 1AF4                     l2257 1A92  
                   l2249 1A4A                     l1801 2112                     l2361 1EEC  
                   l2353 1E16                     l2345 239A                     l2337 235C  
                   l2441 197E                     l2433 195C                     l2417 18F8  
                   l2425 190C                     l2409 1898                     l2179 1406  
                   l2187 142C                     l2099 10F0                     l2195 1D26  
                   l2275 1B4C                     l2267 1B12                     l2259 1A9E  
                   l1803 2118                     l2355 1E90                     l2347 23B2  
                   l2339 2368                     l2291 22A2                     l2283 2268  
                   l2443 199C                     l2435 1960                     l2419 18FC  
                   l2371 17F8                     l2363 17D0                     l2189 1430  
                   l2277 1B5A                     l2269 1B14                     l1741 1FEE  
                   l1733 1FD2                     l1805 211E                     l1821 2186  
                   l1813 2140                     l1901 1F50                     l2357 1ED0  
                   l2349 23BE                     l2293 22BA                     l2285 227A  
                   l2437 1974                     l2381 181E                     l2373 17FC  
                   l2365 17D8                     l2295 22CC                     l2199 1D3A  
                   l2279 1B5C                     l1751 2020                     l1743 1FFC  
                   l1735 1FD4                     l1807 212E                     l1823 21B8  
                   l1815 2150                     l1831 1B6E                     l1911 1FA8  
                   l1903 1F68                     l2359 1ED8                     l2287 2292  
                   l2439 1978                     l2383 1822                     l2375 180A  
                   l2367 17E6                     l2297 22DE                     l1761 205A  
                   l1753 2028                     l1745 2004                     l1737 1FE2  
                   l1809 2136                     l1817 2160                     l1841 1BAC  
                   l1833 1B8C                     l1921 249A                     l1913 1FB4  
                   l1905 1F74                     l2289 229E                     l2385 1826  
                   l2377 180E                     l2369 17F4                     l2299 22F6  
                   l1931 144E                     l1771 2080                     l1763 2062  
                   l1755 2030                     l1747 2008                     l1739 1FEA  
                   l1827 2458                     l1819 216A                     l1851 1C16  
                   l1843 1BC4                     l1835 1B94                     l1923 24A0  
                   l1915 1FB8                     l1907 1F78                     l2395 1848  
                   l2387 182A                     l2379 1812                     l1941 148E  
                   l1933 145C                     l1773 2088                     l1765 2064  
                   l1757 203E                     l1749 200E                     l1781 20A2  
                   l1829 2466                     l1861 1C90                     l1853 1C44  
                   l1845 1BDC                     l1837 1B9E                     l1925 24B0  
                   l1917 248C                     l1909 1F90                     l2397 185A  
                   l2389 1840                     l1951 14B2                     l1943 1490  
                   l1935 145E                     l1767 206A                     l1759 2044  
                   l1791 20D6                     l1783 20AA                     l1863 1CA0  
                   l1855 1C5E                     l1847 1BF4                     l1871 1CE4  
                   l1839 1BA2                     l1919 2494                     l2399 185E  
                   l1961 14F2                     l1953 14C0                     l1937 146E  
                   l1945 1496                     l1929 1442                     l1769 2070  
                   l1793 20DE                     l1785 20AE                     l1777 2092  
                   l1865 1CB2                     l1857 1C70                     l1849 1BFE  
                   l1881 2420                     l1971 1530                     l1963 14F4  
                   l1955 14C2                     l1947 14A6                     l1939 147E  
                   l1795 20E6                     l1787 20BC                     l1779 2094  
                   l1867 1CCC                     l1859 1C80                     l1875 1CF0  
                   l1883 2428                     l1891 1EFA                     l1981 1560  
                   l1973 1538                     l1957 14D2                     l1965 14FA  
                   l1949 14AC                     l1797 20F4                     l1789 20C4  
                   l1869 1CCE                     l1885 2438                     l1893 1F10  
                   l1991 159E                     l1983 1560                     l1975 153C  
                   l1967 150A                     l1959 14E2                     l1799 210A  
                   l1887 2450                     l1895 1F28                     l1993 15AE  
                   l1969 1520                     l1897 1F34                     l1995 15BE  
                   l1987 1574                     l1979 1550                     l1899 1F38  
                   l1997 15C4                     l1989 158E                     l1999 15D4  
                   STR_1 1018                     u2000 19DA                     u1200 205A  
                   u2001 19D6                     u1201 2056                     u2010 1A36  
                   u1210 2080                     u2011 1A32                     u1211 207C  
                   u2020 1A8C                     u1220 20A2                     u1300 2186  
                   u2100 2292                     u2021 1A88                     u1221 209E  
                   u1301 2182                     u2101 228E                     u2030 1AD6  
                   u1230 20BC                     u1310 21B8                     u2110 22BA  
                   u2031 1AD2                     u1231 20B8                     u1311 21B4  
                   u2111 22B6                     u2040 1AF4                     u1160 1FE2  
                   u1240 20D6                     u1320 2466                     u1400 1C90  
                   u2200 23B2                     u2121 22D6                     u2041 1AF0  
                   u1161 1FDE                     u1241 20D2                     u1321 2462  
                   u1401 1C8C                     u2201 23AE                     u2130 22F6  
                   u2050 1B04                     u1170 1FFC                     u1250 20F4  
                   u1410 1CA0                     u1330 1B8C                     u2210 23DA  
                   u2131 22F2                     u2051 1B00                     u1171 1FF8  
                   u1251 20F0                     u1411 1C9C                     u1331 1B88  
                   u2211 23D6                     u2140 231E                     u1500 145C  
                   u2060 1B12                     u1180 2020                     u1260 210A  
                   u1420 1CE0                     u1340 1BC4                     u2300 199A  
                   u2220 17F4                     u2141 231A                     u1501 1458  
                   u2061 1B0E                     u1181 201C                     u1261 2106  
                   u1421 1CDC                     u1341 1BC0                     u2301 1996  
                   u2221 17F0                     u2150 2266                     u1510 146E  
                   u2070 1B4C                     u1190 203E                     u1270 212E  
                   u1350 1BDC                     u1430 2450                     u2151 2262  
                   u1511 146A                     u2071 1B48                     u1191 203A  
                   u1271 212A                     u1351 1BD8                     u1431 244C  
                   u2231 1818                     u1600 1620                     u1520 147E  
                   u2080 1B5A                     u1280 2150                     u1360 1C12  
                   u1440 1F28                     u2160 233A                     u2240 185A  
                   u1601 161C                     u1521 147A                     u2081 1B56  
                   u1281 214C                     u1361 1C0C                     u1441 1F24  
                   u2241 1856                     u1610 1644                     u1530 14C0  
                   u1290 2160                     u1370 1C14                     u1450 1F50  
                   u2170 235C                     u2250 1898                     u1611 1640  
                   u1531 14BC                     u1291 215C                     u1451 1F4C  
                   u2171 2358                     u2091 2272                     u2251 1894  
                   u1700 1762                     u1620 165A                     u1540 14D2  
                   u1380 1C70                     u1460 1F68                     u2180 2384  
                   u2260 18BA                     u1701 175E                     u1621 1656  
                   u1541 14CE                     u1381 1C6C                     u1461 1F64  
                   u2181 2380                     u2261 18B6                     u2317 17DE  
                   u1710 1792                     u1630 1678                     u1550 14E2  
                   u1390 1C80                     u1470 1F90                     u2190 2390  
                   u2270 18CA                     u1711 178E                     u1631 1674  
                   u1551 14DE                     u1391 1C7C                     u1471 1F8C  
                   u2271 18C6                     u2327 1802                     u1720 17BC  
                   u1640 1698                     u1560 1520                     u1800 1100  
                   u1480 1FA8                     u2280 18F8                     u1721 17B8  
                   u1641 1694                     u1561 151C                     u1801 10FC  
                   u1481 1FA4                     u2281 18F4                     u2337 1834  
                   u1650 16A8                     u1570 1560                     u1810 127A  
                   u1730 1036                     u1490 1FD0                     u2290 1974  
                   u1651 16A4                     u1571 155C                     u1731 1032  
                   u1491 1FCC                     u2291 1970                     u2347 1876  
                   u1660 16D6                     u1580 15D4                     u1900 13EC  
                   u1820 12D4                     u1740 1048                     u1661 16D2  
                   u1581 15D0                     u1901 13E8                     u1821 12D0  
                   u1741 1044                     u2357 19A6                     u1670 16EC  
                   u1590 15F6                     u1910 1424                     u1830 12F4  
                   u1750 1058                     u1671 16E8                     u1591 15F2  
                   u1911 1420                     u1831 12F0                     u1815 1270  
                   u1751 1054                     u2367 22C0                     u1680 1700  
                   u1840 1304                     u1760 1098                     u1920 1D26  
                   u2377 2324                     u1681 16FC                     u1841 1300  
                   u1761 1094                     u1921 1D22                     u1690 171A  
                   u1850 1332                     u1770 10AA                     u1930 1D5A  
                   u2387 224C                     u1691 1716                     u1851 132E  
                   u1771 10A6                     u1860 1348                     u1780 10BA  
                   u1940 1D88                     u1861 1344                     u1781 10B6  
                   u1941 1D84                     u1870 135C                     u1790 10F0  
                   u1950 1D9C                     u1871 1358                     u1791 10EC  
                   u1951 1D98                     u1935 1D50                     u1880 1376  
                   u1960 1DC4                     u1881 1372                     u1961 1DC0  
                   u1890 13BE                     u1970 1DE4                     u1891 13BA  
                   u1971 1DE0                     u1980 1DF4                     u1981 1DF0  
                   u1990 19CC                     u1991 19C8                     abs@a 0007  
                   _dbuf 0060                     _main 17D0                     _prec 0051  
                   fsr1h 0FE2                     fsr2h 0FDA                     indf2 0FDF  
                   fsr1l 0FE1                     fsr2l 0FD9              main@results 00C9  
                   prodh 0FF4                     prodl 0FF3                     start FFFC  
        ___fldiv@new_exp 0020             uartsuccess@i 001A             ___param_bank 0000  
                  ??_abs 0009             _BAUDCON1bits 0FB8            ___fltol@sign1 0022  
                  ?_main 0001          __end_of___fldiv 17D0          __end_of___awdiv 2092  
        __end_of___awmod 2140          __end_of___flmul 1442            uarttx@message 0001  
        __end_of___fltol 1E16          ___awdiv@divisor 0003            uarttx@newline 0003  
        ___awdiv@counter 0005             vfpfcnvrt@fmt 000C                    _flags 0053  
     uartsuccess@message 0002                    _fputc 2140                    _width 004F  
                  _putch 2506                    main@i 00ED                    main@j 00EA  
        __end_of_uartEnd 23DC                    tablat 0FF5                    plusw1 0FE3  
                  plusw2 0FDB                    status 0FD8          __end_of_sprintf 24BC  
        __initialization 23DC             __end_of_main 19BA                   ??_main 004D  
        adcsuccess@F6345 00B2            __activetblptr 0001                   ?_fputc 0001  
                 _ADRESH 0FC4                   _ADRESL 0FC3         ___awdiv@dividend 0001  
                 ?_putch 0001            vfpfcnvrt@done 000F                   _SPBRG1 0FAF  
       __end_of_adcsetup 2268                   _TXREG1 0FAD         __end_of___xxtofl 1B6E  
       __end_of_dectohex 1EFA             vfprintf@cfmt 0019                ??___fldiv 0017  
              ??___awdiv 0005                ??___awmod 0005                ??___flmul 0009  
              ??___fltol 001E       dectohex@currentInt 0049                   clear_0 2402  
       ___awdiv@quotient 0007          ___awmod@divisor 0003                   isa$std 0001  
        ___awmod@counter 0005                   _uarttx 1EFA                   fputc@c 0001  
           __mediumconst 1000                   tblptrh 0FF7                   tblptrl 0FF6  
              ??_uartEnd 0001                   tblptru 0FF8                   putch@c 0001  
       __end_of_vfprintf 2458                ??_sprintf 001E             ___xxtofl@arg 000B  
           ?_uartsuccess 0001             ___xxtofl@exp 000A             ___xxtofl@val 0001  
             __accesstop 0060  __end_of__initialization 2412            ___rparam_used 0001  
             ___fltol@f1 001A           __pcstackCOMRAM 0001             __pidataBANK0 24BC  
          __end_of_fputc 21EA            __end_of_putch 2508               _adcsuccess 22CC  
                ??_fputc 0004                  ??_putch 0001               __pbssBANK0 0060  
                ?_uarttx 0001                ?_adcsetup 0001                ?___xxtofl 0001  
              ?_dectohex 002A         uartEnd@endMarker 0001      __end_ofuarttx@F6361 1018  
   uartStart@startMarker 0001                  __Hparam 0000                  __Lparam 0000  
                ___fldiv 1442                  ___awdiv 1FD2                  ___awmod 2092  
                ___flmul 101C                  ___fltol 1D10                ?_vfprintf 0016  
           __psmallconst 1000                  __pcinit 23DC                  __ramtop 1000  
                __ptext0 17D0                  __ptext1 2268                  __ptext2 24EC  
                __ptext3 2330                  __ptext4 2386                  __ptext5 1E16  
                __ptext6 1EFA                  __ptext7 248C                  __ptext8 2420  
                __ptext9 1B6E               ??_adcsetup 0001               ??___xxtofl 0005  
       ___awmod@dividend 0001              ?_adcsuccess 0001               ??_dectohex 002D  
                _uartEnd 2386                  _sprintf 248C     end_of_initialization 2412  
                fputc@fp 0003        __end_of_uartStart 2386        __end_of_uartsetup 2506  
      __end_of_vfpfcnvrt 1D10                  uarttx@i 0006                  postdec1 0FE5  
                postdec2 0FDD                  postinc0 0FEE                  postinc1 0FE6  
                postinc2 0FDE         vfpfcnvrt@convarg 0011               ??_vfprintf 0019  
          ___xxtofl@sign 0009              uarttx@F6361 1015                _TRISAbits 0F92  
              _TRISBbits 0F93                _TRISCbits 0F94                _TRISEbits 0F96  
            ___fldiv@grs 0022              ___fldiv@rem 001B              uarttx@i_782 0008  
            uarttx@i_783 000A              ___flmul@grs 000E              vfpfcnvrt@ap 000D  
            vfpfcnvrt@cp 0010              vfpfcnvrt@fp 000B      dectohex@numberValue 002D  
         __end_of_uarttx 1FD2      start_initialization 23DC              __end_of_abs 248C  
   __end_ofuartEnd@F6355 1011              vfprintf@fmt 0017              __pdataBANK0 009A  
               ??_uarttx 0003                ___fldiv@a 0013                ___fldiv@b 000F  
              ___flmul@a 0005                ___flmul@b 0001              __pbssCOMRAM 004F  
          __pcstackBANK0 00C9                __end_of_R 1015                 ?___fldiv 000F  
               ?___awdiv 0001                 ?___awmod 0001                 ?___flmul 0001  
               ?___fltol 001A              __smallconst 1000             ??_adcsuccess 0001  
         uartStart@F6351 1001                 ?_uartEnd 0001                 ?_sprintf 001A  
      adcsuccess@message 0002                dectohex@V 0041                 _PIR1bits 0F9E  
             uartStart@i 000A                _uartStart 2330                main@F6376 0080  
     __end_of_adcsuccess 2330                _uartsetup 24EC                _vfpfcnvrt 1B6E  
              main@ChSEL 00EC             dectohex@Anum 002C               _ADCON0bits 0FC2  
             _ADCON1bits 0FC1               _ADCON2bits 0FC0               uarttx@Anum 0002  
 __end_ofuartStart@F6351 100A                main@label 00E3              adcsuccess@i 0019  
             vfpfcnvrt@c 0015                copy_data0 23F0            ??_uartsuccess 0001  
               __Hrparam 0000               vfprintf@ap 0018                 __Lrparam 0000  
             vfprintf@fp 0016             __Lsmallconst 1000               ?_uartStart 0001  
             ?_uartsetup 0001               ?_vfpfcnvrt 000B             uartEnd@F6355 100A  
             _ANSELAbits 0F38               _ANSELBbits 0F39               _ANSELCbits 0F3A  
             _ANSELEbits 0F3C                 _adcsetup 21EA               sprintf@fmt 001B  
               ___xxtofl 19BA                 _dectohex 1E16                 __ptext10 2140  
               __ptext11 2506                 __ptext20 21EA                 __ptext12 2458  
               __ptext13 2092                 __ptext14 1FD2                 __ptext15 19BA  
               __ptext16 1D10                 __ptext17 101C                 __ptext18 1442  
               __ptext19 22CC      __end_of_uartsuccess 22CC                 isa$xinst 0000  
               _vfprintf 2420                sprintf@ap 001E             _VREFCON0bits 0F42  
             _RCSTA1bits 0FAB                 uartEnd@i 0008               _OSCCONbits 0FD3  
            ??_uartStart 0001              ??_uartsetup 0001              ??_vfpfcnvrt 000E  
               sprintf@f 001F                 sprintf@s 001A              _uartsuccess 2268  
